(lp1
(lp2
I1
aV\u0627\u0644\u062c\u0632\u0621 1
p3
aI1
aa(lp4
I1
aV\u0627\u0644\u062d\u0632\u0628 1
p5
aI2
aa(lp6
I1
aV\u0627\u0644\u0631\u0628\u0639 1
p7
aI3
aa(lp8
I5
aV\u0627\u0644\u0631\u0628\u0639 2
p9
aI3
aa(lp10
I7
aV\u0627\u0644\u0631\u0628\u0639 3
p11
aI3
aa(lp12
I9
aV\u0627\u0644\u0631\u0628\u0639 4
p13
aI3
aa(lp14
I11
aV\u0627\u0644\u062d\u0632\u0628 2
p15
aI2
aa(lp16
I11
aV\u0627\u0644\u0631\u0628\u0639 1
p17
aI3
aa(lp18
I14
aV\u0627\u0644\u0631\u0628\u0639 2
p19
aI3
aa(lp20
I17
aV\u0627\u0644\u0631\u0628\u0639 3
p21
aI3
aa(lp22
I19
aV\u0627\u0644\u0631\u0628\u0639 4
p23
aI3
aa(lp24
I22
aV\u0627\u0644\u062c\u0632\u0621 2
p25
aI1
aa(lp26
I22
aV\u0627\u0644\u062d\u0632\u0628 3
p27
aI2
aa(lp28
I22
aV\u0627\u0644\u0631\u0628\u0639 1
p29
aI3
aa(lp30
I24
aV\u0627\u0644\u0631\u0628\u0639 2
p31
aI3
aa(lp32
I27
aV\u0627\u0644\u0631\u0628\u0639 3
p33
aI3
aa(lp34
I29
aV\u0627\u0644\u0631\u0628\u0639 4
p35
aI3
aa(lp36
I32
aV\u0627\u0644\u062d\u0632\u0628 4
p37
aI2
aa(lp38
I32
aV\u0627\u0644\u0631\u0628\u0639 1
p39
aI3
aa(lp40
I34
aV\u0627\u0644\u0631\u0628\u0639 2
p41
aI3
aa(lp42
I37
aV\u0627\u0644\u0631\u0628\u0639 3
p43
aI3
aa(lp44
I39
aV\u0627\u0644\u0631\u0628\u0639 4
p45
aI3
aa(lp46
I42
aV\u0627\u0644\u062c\u0632\u0621 3
p47
aI1
aa(lp48
I42
aV\u0627\u0644\u062d\u0632\u0628 5
p49
aI2
aa(lp50
I42
aV\u0627\u0644\u0631\u0628\u0639 1
p51
aI3
aa(lp52
I44
aV\u0627\u0644\u0631\u0628\u0639 2
p53
aI3
aa(lp54
I46
aV\u0627\u0644\u0631\u0628\u0639 3
p55
aI3
aa(lp56
I49
aV\u0627\u0644\u0631\u0628\u0639 4
p57
aI3
aa(lp58
I51
aV\u0627\u0644\u062d\u0632\u0628 6
p59
aI2
aa(lp60
I51
aV\u0627\u0644\u0631\u0628\u0639 1
p61
aI3
aa(lp62
I54
aV\u0627\u0644\u0631\u0628\u0639 2
p63
aI3
aa(lp64
I56
aV\u0627\u0644\u0631\u0628\u0639 3
p65
aI3
aa(lp66
I59
aV\u0627\u0644\u0631\u0628\u0639 4
p67
aI3
aa(lp68
I62
aV\u0627\u0644\u062c\u0632\u0621 4
p69
aI1
aa(lp70
I62
aV\u0627\u0644\u062d\u0632\u0628 7
p71
aI2
aa(lp72
I62
aV\u0627\u0644\u0631\u0628\u0639 1
p73
aI3
aa(lp74
I64
aV\u0627\u0644\u0631\u0628\u0639 2
p75
aI3
aa(lp76
I67
aV\u0627\u0644\u0631\u0628\u0639 3
p77
aI3
aa(lp78
I69
aV\u0627\u0644\u0631\u0628\u0639 4
p79
aI3
aa(lp80
I72
aV\u0627\u0644\u062d\u0632\u0628 8
p81
aI2
aa(lp82
I72
aV\u0627\u0644\u0631\u0628\u0639 1
p83
aI3
aa(lp84
I74
aV\u0627\u0644\u0631\u0628\u0639 2
p85
aI3
aa(lp86
I77
aV\u0627\u0644\u0631\u0628\u0639 3
p87
aI3
aa(lp88
I79
aV\u0627\u0644\u0631\u0628\u0639 4
p89
aI3
aa(lp90
I82
aV\u0627\u0644\u062c\u0632\u0621 5
p91
aI1
aa(lp92
I82
aV\u0627\u0644\u062d\u0632\u0628 9
p93
aI2
aa(lp94
I82
aV\u0627\u0644\u0631\u0628\u0639 1
p95
aI3
aa(lp96
I84
aV\u0627\u0644\u0631\u0628\u0639 2
p97
aI3
aa(lp98
I87
aV\u0627\u0644\u0631\u0628\u0639 3
p99
aI3
aa(lp100
I89
aV\u0627\u0644\u0631\u0628\u0639 4
p101
aI3
aa(lp102
I92
aV\u0627\u0644\u062d\u0632\u0628 10
p103
aI2
aa(lp104
I92
aV\u0627\u0644\u0631\u0628\u0639 1
p105
aI3
aa(lp106
I94
aV\u0627\u0644\u0631\u0628\u0639 2
p107
aI3
aa(lp108
I97
aV\u0627\u0644\u0631\u0628\u0639 3
p109
aI3
aa(lp110
I100
aV\u0627\u0644\u0631\u0628\u0639 4
p111
aI3
aa(lp112
I102
aV\u0627\u0644\u062c\u0632\u0621 6
p113
aI1
aa(lp114
I102
aV\u0627\u0644\u062d\u0632\u0628 11
p115
aI2
aa(lp116
I102
aV\u0627\u0644\u0631\u0628\u0639 1
p117
aI3
aa(lp118
I104
aV\u0627\u0644\u0631\u0628\u0639 2
p119
aI3
aa(lp120
I106
aV\u0627\u0644\u0631\u0628\u0639 3
p121
aI3
aa(lp122
I109
aV\u0627\u0644\u0631\u0628\u0639 4
p123
aI3
aa(lp124
I112
aV\u0627\u0644\u062d\u0632\u0628 12
p125
aI2
aa(lp126
I112
aV\u0627\u0644\u0631\u0628\u0639 1
p127
aI3
aa(lp128
I114
aV\u0627\u0644\u0631\u0628\u0639 2
p129
aI3
aa(lp130
I117
aV\u0627\u0644\u0631\u0628\u0639 3
p131
aI3
aa(lp132
I119
aV\u0627\u0644\u0631\u0628\u0639 4
p133
aI3
aa(lp134
I121
aV\u0627\u0644\u062c\u0632\u0621 7
p135
aI1
aa(lp136
I121
aV\u0627\u0644\u062d\u0632\u0628 13
p137
aI2
aa(lp138
I121
aV\u0627\u0644\u0631\u0628\u0639 1
p139
aI3
aa(lp140
I124
aV\u0627\u0644\u0631\u0628\u0639 2
p141
aI3
aa(lp142
I126
aV\u0627\u0644\u0631\u0628\u0639 3
p143
aI3
aa(lp144
I129
aV\u0627\u0644\u0631\u0628\u0639 4
p145
aI3
aa(lp146
I132
aV\u0627\u0644\u062d\u0632\u0628 14
p147
aI2
aa(lp148
I132
aV\u0627\u0644\u0631\u0628\u0639 1
p149
aI3
aa(lp150
I134
aV\u0627\u0644\u0631\u0628\u0639 2
p151
aI3
aa(lp152
I137
aV\u0627\u0644\u0631\u0628\u0639 3
p153
aI3
aa(lp154
I140
aV\u0627\u0644\u0631\u0628\u0639 4
p155
aI3
aa(lp156
I142
aV\u0627\u0644\u062c\u0632\u0621 8
p157
aI1
aa(lp158
I142
aV\u0627\u0644\u062d\u0632\u0628 15
p159
aI2
aa(lp160
I142
aV\u0627\u0644\u0631\u0628\u0639 1
p161
aI3
aa(lp162
I144
aV\u0627\u0644\u0631\u0628\u0639 2
p163
aI3
aa(lp164
I146
aV\u0627\u0644\u0631\u0628\u0639 3
p165
aI3
aa(lp166
I148
aV\u0627\u0644\u0631\u0628\u0639 4
p167
aI3
aa(lp168
I151
aV\u0627\u0644\u062d\u0632\u0628 16
p169
aI2
aa(lp170
I151
aV\u0627\u0644\u0631\u0628\u0639 1
p171
aI3
aa(lp172
I154
aV\u0627\u0644\u0631\u0628\u0639 2
p173
aI3
aa(lp174
I156
aV\u0627\u0644\u0631\u0628\u0639 3
p175
aI3
aa(lp176
I158
aV\u0627\u0644\u0631\u0628\u0639 4
p177
aI3
aa(lp178
I162
aV\u0627\u0644\u062c\u0632\u0621 9
p179
aI1
aa(lp180
I162
aV\u0627\u0644\u062d\u0632\u0628 17
p181
aI2
aa(lp182
I162
aV\u0627\u0644\u0631\u0628\u0639 1
p183
aI3
aa(lp184
I164
aV\u0627\u0644\u0631\u0628\u0639 2
p185
aI3
aa(lp186
I167
aV\u0627\u0644\u0631\u0628\u0639 3
p187
aI3
aa(lp188
I170
aV\u0627\u0644\u0631\u0628\u0639 4
p189
aI3
aa(lp190
I173
aV\u0627\u0644\u062d\u0632\u0628 18
p191
aI2
aa(lp192
I173
aV\u0627\u0644\u0631\u0628\u0639 1
p193
aI3
aa(lp194
I175
aV\u0627\u0644\u0631\u0628\u0639 2
p195
aI3
aa(lp196
I177
aV\u0627\u0644\u0631\u0628\u0639 3
p197
aI3
aa(lp198
I179
aV\u0627\u0644\u0631\u0628\u0639 4
p199
aI3
aa(lp200
I182
aV\u0627\u0644\u062c\u0632\u0621 10
p201
aI1
aa(lp202
I182
aV\u0627\u0644\u062d\u0632\u0628 19
p203
aI2
aa(lp204
I182
aV\u0627\u0644\u0631\u0628\u0639 1
p205
aI3
aa(lp206
I184
aV\u0627\u0644\u0631\u0628\u0639 2
p207
aI3
aa(lp208
I187
aV\u0627\u0644\u0631\u0628\u0639 3
p209
aI3
aa(lp210
I189
aV\u0627\u0644\u0631\u0628\u0639 4
p211
aI3
aa(lp212
I192
aV\u0627\u0644\u062d\u0632\u0628 20
p213
aI2
aa(lp214
I192
aV\u0627\u0644\u0631\u0628\u0639 1
p215
aI3
aa(lp216
I194
aV\u0627\u0644\u0631\u0628\u0639 2
p217
aI3
aa(lp218
I196
aV\u0627\u0644\u0631\u0628\u0639 3
p219
aI3
aa(lp220
I199
aV\u0627\u0644\u0631\u0628\u0639 4
p221
aI3
aa(lp222
I201
aV\u0627\u0644\u062c\u0632\u0621 11
p223
aI1
aa(lp224
I201
aV\u0627\u0644\u062d\u0632\u0628 21
p225
aI2
aa(lp226
I201
aV\u0627\u0644\u0631\u0628\u0639 1
p227
aI3
aa(lp228
I204
aV\u0627\u0644\u0631\u0628\u0639 2
p229
aI3
aa(lp230
I206
aV\u0627\u0644\u0631\u0628\u0639 3
p231
aI3
aa(lp232
I209
aV\u0627\u0644\u0631\u0628\u0639 4
p233
aI3
aa(lp234
I212
aV\u0627\u0644\u062d\u0632\u0628 22
p235
aI2
aa(lp236
I212
aV\u0627\u0644\u0631\u0628\u0639 1
p237
aI3
aa(lp238
I214
aV\u0627\u0644\u0631\u0628\u0639 2
p239
aI3
aa(lp240
I217
aV\u0627\u0644\u0631\u0628\u0639 3
p241
aI3
aa(lp242
I219
aV\u0627\u0644\u0631\u0628\u0639 4
p243
aI3
aa(lp244
I222
aV\u0627\u0644\u062c\u0632\u0621 12
p245
aI1
aa(lp246
I222
aV\u0627\u0644\u062d\u0632\u0628 23
p247
aI2
aa(lp248
I222
aV\u0627\u0644\u0631\u0628\u0639 1
p249
aI3
aa(lp250
I224
aV\u0627\u0644\u0631\u0628\u0639 2
p251
aI3
aa(lp252
I226
aV\u0627\u0644\u0631\u0628\u0639 3
p253
aI3
aa(lp254
I228
aV\u0627\u0644\u0631\u0628\u0639 4
p255
aI3
aa(lp256
I231
aV\u0627\u0644\u062d\u0632\u0628 24
p257
aI2
aa(lp258
I231
aV\u0627\u0644\u0631\u0628\u0639 1
p259
aI3
aa(lp260
I233
aV\u0627\u0644\u0631\u0628\u0639 2
p261
aI3
aa(lp262
I236
aV\u0627\u0644\u0631\u0628\u0639 3
p263
aI3
aa(lp264
I238
aV\u0627\u0644\u0631\u0628\u0639 4
p265
aI3
aa(lp266
I242
aV\u0627\u0644\u062c\u0632\u0621 13
p267
aI1
aa(lp268
I242
aV\u0627\u0644\u062d\u0632\u0628 25
p269
aI2
aa(lp270
I242
aV\u0627\u0644\u0631\u0628\u0639 1
p271
aI3
aa(lp272
I244
aV\u0627\u0644\u0631\u0628\u0639 2
p273
aI3
aa(lp274
I247
aV\u0627\u0644\u0631\u0628\u0639 3
p275
aI3
aa(lp276
I249
aV\u0627\u0644\u0631\u0628\u0639 4
p277
aI3
aa(lp278
I252
aV\u0627\u0644\u062d\u0632\u0628 26
p279
aI2
aa(lp280
I252
aV\u0627\u0644\u0631\u0628\u0639 1
p281
aI3
aa(lp282
I254
aV\u0627\u0644\u0631\u0628\u0639 2
p283
aI3
aa(lp284
I256
aV\u0627\u0644\u0631\u0628\u0639 3
p285
aI3
aa(lp286
I259
aV\u0627\u0644\u0631\u0628\u0639 4
p287
aI3
aa(lp288
I262
aV\u0627\u0644\u062c\u0632\u0621 14
p289
aI1
aa(lp290
I262
aV\u0627\u0644\u062d\u0632\u0628 27
p291
aI2
aa(lp292
I262
aV\u0627\u0644\u0631\u0628\u0639 1
p293
aI3
aa(lp294
I264
aV\u0627\u0644\u0631\u0628\u0639 2
p295
aI3
aa(lp296
I267
aV\u0627\u0644\u0631\u0628\u0639 3
p297
aI3
aa(lp298
I270
aV\u0627\u0644\u0631\u0628\u0639 4
p299
aI3
aa(lp300
I272
aV\u0627\u0644\u062d\u0632\u0628 28
p301
aI2
aa(lp302
I272
aV\u0627\u0644\u0631\u0628\u0639 1
p303
aI3
aa(lp304
I275
aV\u0627\u0644\u0631\u0628\u0639 2
p305
aI3
aa(lp306
I277
aV\u0627\u0644\u0631\u0628\u0639 3
p307
aI3
aa(lp308
I280
aV\u0627\u0644\u0631\u0628\u0639 4
p309
aI3
aa(lp310
I282
aV\u0627\u0644\u062c\u0632\u0621 15
p311
aI1
aa(lp312
I282
aV\u0627\u0644\u062d\u0632\u0628 29
p313
aI2
aa(lp314
I282
aV\u0627\u0644\u0631\u0628\u0639 1
p315
aI3
aa(lp316
I284
aV\u0627\u0644\u0631\u0628\u0639 2
p317
aI3
aa(lp318
I287
aV\u0627\u0644\u0631\u0628\u0639 3
p319
aI3
aa(lp320
I289
aV\u0627\u0644\u0631\u0628\u0639 4
p321
aI3
aa(lp322
I292
aV\u0627\u0644\u062d\u0632\u0628 30
p323
aI2
aa(lp324
I292
aV\u0627\u0644\u0631\u0628\u0639 1
p325
aI3
aa(lp326
I295
aV\u0627\u0644\u0631\u0628\u0639 2
p327
aI3
aa(lp328
I297
aV\u0627\u0644\u0631\u0628\u0639 3
p329
aI3
aa(lp330
I299
aV\u0627\u0644\u0631\u0628\u0639 4
p331
aI3
aa(lp332
I302
aV\u0627\u0644\u062c\u0632\u0621 16
p333
aI1
aa(lp334
I302
aV\u0627\u0644\u062d\u0632\u0628 31
p335
aI2
aa(lp336
I302
aV\u0627\u0644\u0631\u0628\u0639 1
p337
aI3
aa(lp338
I304
aV\u0627\u0644\u0631\u0628\u0639 2
p339
aI3
aa(lp340
I306
aV\u0627\u0644\u0631\u0628\u0639 3
p341
aI3
aa(lp342
I309
aV\u0627\u0644\u0631\u0628\u0639 4
p343
aI3
aa(lp344
I312
aV\u0627\u0644\u062d\u0632\u0628 32
p345
aI2
aa(lp346
I312
aV\u0627\u0644\u0631\u0628\u0639 1
p347
aI3
aa(lp348
I315
aV\u0627\u0644\u0631\u0628\u0639 2
p349
aI3
aa(lp350
I317
aV\u0627\u0644\u0631\u0628\u0639 3
p351
aI3
aa(lp352
I319
aV\u0627\u0644\u0631\u0628\u0639 4
p353
aI3
aa(lp354
I322
aV\u0627\u0644\u062c\u0632\u0621 17
p355
aI1
aa(lp356
I322
aV\u0627\u0644\u062d\u0632\u0628 33
p357
aI2
aa(lp358
I322
aV\u0627\u0644\u0631\u0628\u0639 1
p359
aI3
aa(lp360
I324
aV\u0627\u0644\u0631\u0628\u0639 2
p361
aI3
aa(lp362
I326
aV\u0627\u0644\u0631\u0628\u0639 3
p363
aI3
aa(lp364
I329
aV\u0627\u0644\u0631\u0628\u0639 4
p365
aI3
aa(lp366
I332
aV\u0627\u0644\u062d\u0632\u0628 34
p367
aI2
aa(lp368
I332
aV\u0627\u0644\u0631\u0628\u0639 1
p369
aI3
aa(lp370
I334
aV\u0627\u0644\u0631\u0628\u0639 2
p371
aI3
aa(lp372
I336
aV\u0627\u0644\u0631\u0628\u0639 3
p373
aI3
aa(lp374
I339
aV\u0627\u0644\u0631\u0628\u0639 4
p375
aI3
aa(lp376
I342
aV\u0627\u0644\u062c\u0632\u0621 18
p377
aI1
aa(lp378
I342
aV\u0627\u0644\u062d\u0632\u0628 35
p379
aI2
aa(lp380
I342
aV\u0627\u0644\u0631\u0628\u0639 1
p381
aI3
aa(lp382
I344
aV\u0627\u0644\u0631\u0628\u0639 2
p383
aI3
aa(lp384
I347
aV\u0627\u0644\u0631\u0628\u0639 3
p385
aI3
aa(lp386
I350
aV\u0627\u0644\u0631\u0628\u0639 4
p387
aI3
aa(lp388
I352
aV\u0627\u0644\u062d\u0632\u0628 36
p389
aI2
aa(lp390
I352
aV\u0627\u0644\u0631\u0628\u0639 1
p391
aI3
aa(lp392
I354
aV\u0627\u0644\u0631\u0628\u0639 2
p393
aI3
aa(lp394
I356
aV\u0627\u0644\u0631\u0628\u0639 3
p395
aI3
aa(lp396
I359
aV\u0627\u0644\u0631\u0628\u0639 4
p397
aI3
aa(lp398
I362
aV\u0627\u0644\u062c\u0632\u0621 19
p399
aI1
aa(lp400
I362
aV\u0627\u0644\u062d\u0632\u0628 37
p401
aI2
aa(lp402
I362
aV\u0627\u0644\u0631\u0628\u0639 1
p403
aI3
aa(lp404
I364
aV\u0627\u0644\u0631\u0628\u0639 2
p405
aI3
aa(lp406
I367
aV\u0627\u0644\u0631\u0628\u0639 3
p407
aI3
aa(lp408
I369
aV\u0627\u0644\u0631\u0628\u0639 4
p409
aI3
aa(lp410
I371
aV\u0627\u0644\u062d\u0632\u0628 38
p411
aI2
aa(lp412
I371
aV\u0627\u0644\u0631\u0628\u0639 1
p413
aI3
aa(lp414
I374
aV\u0627\u0644\u0631\u0628\u0639 2
p415
aI3
aa(lp416
I377
aV\u0627\u0644\u0631\u0628\u0639 3
p417
aI3
aa(lp418
I379
aV\u0627\u0644\u0631\u0628\u0639 4
p419
aI3
aa(lp420
I382
aV\u0627\u0644\u062c\u0632\u0621 20
p421
aI1
aa(lp422
I382
aV\u0627\u0644\u062d\u0632\u0628 39
p423
aI2
aa(lp424
I382
aV\u0627\u0644\u0631\u0628\u0639 1
p425
aI3
aa(lp426
I384
aV\u0627\u0644\u0631\u0628\u0639 2
p427
aI3
aa(lp428
I386
aV\u0627\u0644\u0631\u0628\u0639 3
p429
aI3
aa(lp430
I389
aV\u0627\u0644\u0631\u0628\u0639 4
p431
aI3
aa(lp432
I392
aV\u0627\u0644\u062d\u0632\u0628 40
p433
aI2
aa(lp434
I392
aV\u0627\u0644\u0631\u0628\u0639 1
p435
aI3
aa(lp436
I394
aV\u0627\u0644\u0631\u0628\u0639 2
p437
aI3
aa(lp438
I396
aV\u0627\u0644\u0631\u0628\u0639 3
p439
aI3
aa(lp440
I399
aV\u0627\u0644\u0631\u0628\u0639 4
p441
aI3
aa(lp442
I402
aV\u0627\u0644\u062c\u0632\u0621 21
p443
aI1
aa(lp444
I402
aV\u0627\u0644\u062d\u0632\u0628 41
p445
aI2
aa(lp446
I402
aV\u0627\u0644\u0631\u0628\u0639 1
p447
aI3
aa(lp448
I404
aV\u0627\u0644\u0631\u0628\u0639 2
p449
aI3
aa(lp450
I407
aV\u0627\u0644\u0631\u0628\u0639 3
p451
aI3
aa(lp452
I410
aV\u0627\u0644\u0631\u0628\u0639 4
p453
aI3
aa(lp454
I413
aV\u0627\u0644\u062d\u0632\u0628 42
p455
aI2
aa(lp456
I413
aV\u0627\u0644\u0631\u0628\u0639 1
p457
aI3
aa(lp458
I415
aV\u0627\u0644\u0631\u0628\u0639 2
p459
aI3
aa(lp460
I418
aV\u0627\u0644\u0631\u0628\u0639 3
p461
aI3
aa(lp462
I420
aV\u0627\u0644\u0631\u0628\u0639 4
p463
aI3
aa(lp464
I422
aV\u0627\u0644\u062c\u0632\u0621 22
p465
aI1
aa(lp466
I422
aV\u0627\u0644\u062d\u0632\u0628 43
p467
aI2
aa(lp468
I422
aV\u0627\u0644\u0631\u0628\u0639 1
p469
aI3
aa(lp470
I425
aV\u0627\u0644\u0631\u0628\u0639 2
p471
aI3
aa(lp472
I426
aV\u0627\u0644\u0631\u0628\u0639 3
p473
aI3
aa(lp474
I429
aV\u0627\u0644\u0631\u0628\u0639 4
p475
aI3
aa(lp476
I431
aV\u0627\u0644\u062d\u0632\u0628 44
p477
aI2
aa(lp478
I431
aV\u0627\u0644\u0631\u0628\u0639 1
p479
aI3
aa(lp480
I433
aV\u0627\u0644\u0631\u0628\u0639 2
p481
aI3
aa(lp482
I436
aV\u0627\u0644\u0631\u0628\u0639 3
p483
aI3
aa(lp484
I439
aV\u0627\u0644\u0631\u0628\u0639 4
p485
aI3
aa(lp486
I442
aV\u0627\u0644\u062c\u0632\u0621 23
p487
aI1
aa(lp488
I442
aV\u0627\u0644\u062d\u0632\u0628 45
p489
aI2
aa(lp490
I442
aV\u0627\u0644\u0631\u0628\u0639 1
p491
aI3
aa(lp492
I444
aV\u0627\u0644\u0631\u0628\u0639 2
p493
aI3
aa(lp494
I446
aV\u0627\u0644\u0631\u0628\u0639 3
p495
aI3
aa(lp496
I449
aV\u0627\u0644\u0631\u0628\u0639 4
p497
aI3
aa(lp498
I451
aV\u0627\u0644\u062d\u0632\u0628 46
p499
aI2
aa(lp500
I451
aV\u0627\u0644\u0631\u0628\u0639 1
p501
aI3
aa(lp502
I454
aV\u0627\u0644\u0631\u0628\u0639 2
p503
aI3
aa(lp504
I456
aV\u0627\u0644\u0631\u0628\u0639 3
p505
aI3
aa(lp506
I459
aV\u0627\u0644\u0631\u0628\u0639 4
p507
aI3
aa(lp508
I462
aV\u0627\u0644\u062c\u0632\u0621 24
p509
aI1
aa(lp510
I462
aV\u0627\u0644\u062d\u0632\u0628 47
p511
aI2
aa(lp512
I462
aV\u0627\u0644\u0631\u0628\u0639 1
p513
aI3
aa(lp514
I464
aV\u0627\u0644\u0631\u0628\u0639 2
p515
aI3
aa(lp516
I467
aV\u0627\u0644\u0631\u0628\u0639 3
p517
aI3
aa(lp518
I469
aV\u0627\u0644\u0631\u0628\u0639 4
p519
aI3
aa(lp520
I472
aV\u0627\u0644\u062d\u0632\u0628 48
p521
aI2
aa(lp522
I472
aV\u0627\u0644\u0631\u0628\u0639 1
p523
aI3
aa(lp524
I474
aV\u0627\u0644\u0631\u0628\u0639 2
p525
aI3
aa(lp526
I477
aV\u0627\u0644\u0631\u0628\u0639 3
p527
aI3
aa(lp528
I479
aV\u0627\u0644\u0631\u0628\u0639 4
p529
aI3
aa(lp530
I482
aV\u0627\u0644\u062c\u0632\u0621 25
p531
aI1
aa(lp532
I482
aV\u0627\u0644\u062d\u0632\u0628 49
p533
aI2
aa(lp534
I482
aV\u0627\u0644\u0631\u0628\u0639 1
p535
aI3
aa(lp536
I484
aV\u0627\u0644\u0631\u0628\u0639 2
p537
aI3
aa(lp538
I486
aV\u0627\u0644\u0631\u0628\u0639 3
p539
aI3
aa(lp540
I488
aV\u0627\u0644\u0631\u0628\u0639 4
p541
aI3
aa(lp542
I491
aV\u0627\u0644\u062d\u0632\u0628 50
p543
aI2
aa(lp544
I491
aV\u0627\u0644\u0631\u0628\u0639 1
p545
aI3
aa(lp546
I493
aV\u0627\u0644\u0631\u0628\u0639 2
p547
aI3
aa(lp548
I496
aV\u0627\u0644\u0631\u0628\u0639 3
p549
aI3
aa(lp550
I499
aV\u0627\u0644\u0631\u0628\u0639 4
p551
aI3
aa(lp552
I502
aV\u0627\u0644\u062c\u0632\u0621 26
p553
aI1
aa(lp554
I502
aV\u0627\u0644\u062d\u0632\u0628 51
p555
aI2
aa(lp556
I502
aV\u0627\u0644\u0631\u0628\u0639 1
p557
aI3
aa(lp558
I505
aV\u0627\u0644\u0631\u0628\u0639 2
p559
aI3
aa(lp560
I507
aV\u0627\u0644\u0631\u0628\u0639 3
p561
aI3
aa(lp562
I510
aV\u0627\u0644\u0631\u0628\u0639 4
p563
aI3
aa(lp564
I513
aV\u0627\u0644\u062d\u0632\u0628 52
p565
aI2
aa(lp566
I513
aV\u0627\u0644\u0631\u0628\u0639 1
p567
aI3
aa(lp568
I515
aV\u0627\u0644\u0631\u0628\u0639 2
p569
aI3
aa(lp570
I517
aV\u0627\u0644\u0631\u0628\u0639 3
p571
aI3
aa(lp572
I519
aV\u0627\u0644\u0631\u0628\u0639 4
p573
aI3
aa(lp574
I522
aV\u0627\u0644\u062c\u0632\u0621 27
p575
aI1
aa(lp576
I522
aV\u0627\u0644\u062d\u0632\u0628 53
p577
aI2
aa(lp578
I522
aV\u0627\u0644\u0631\u0628\u0639 1
p579
aI3
aa(lp580
I524
aV\u0627\u0644\u0631\u0628\u0639 2
p581
aI3
aa(lp582
I526
aV\u0627\u0644\u0631\u0628\u0639 3
p583
aI3
aa(lp584
I529
aV\u0627\u0644\u0631\u0628\u0639 4
p585
aI3
aa(lp586
I531
aV\u0627\u0644\u062d\u0632\u0628 54
p587
aI2
aa(lp588
I531
aV\u0627\u0644\u0631\u0628\u0639 1
p589
aI3
aa(lp590
I534
aV\u0627\u0644\u0631\u0628\u0639 2
p591
aI3
aa(lp592
I536
aV\u0627\u0644\u0631\u0628\u0639 3
p593
aI3
aa(lp594
I539
aV\u0627\u0644\u0631\u0628\u0639 4
p595
aI3
aa(lp596
I542
aV\u0627\u0644\u062c\u0632\u0621 28
p597
aI1
aa(lp598
I542
aV\u0627\u0644\u062d\u0632\u0628 55
p599
aI2
aa(lp600
I542
aV\u0627\u0644\u0631\u0628\u0639 1
p601
aI3
aa(lp602
I544
aV\u0627\u0644\u0631\u0628\u0639 2
p603
aI3
aa(lp604
I547
aV\u0627\u0644\u0631\u0628\u0639 3
p605
aI3
aa(lp606
I550
aV\u0627\u0644\u0631\u0628\u0639 4
p607
aI3
aa(lp608
I553
aV\u0627\u0644\u062d\u0632\u0628 56
p609
aI2
aa(lp610
I553
aV\u0627\u0644\u0631\u0628\u0639 1
p611
aI3
aa(lp612
I554
aV\u0627\u0644\u0631\u0628\u0639 2
p613
aI3
aa(lp614
I558
aV\u0627\u0644\u0631\u0628\u0639 3
p615
aI3
aa(lp616
I560
aV\u0627\u0644\u0631\u0628\u0639 4
p617
aI3
aa(lp618
I562
aV\u0627\u0644\u062c\u0632\u0621 29
p619
aI1
aa(lp620
I562
aV\u0627\u0644\u062d\u0632\u0628 57
p621
aI2
aa(lp622
I562
aV\u0627\u0644\u0631\u0628\u0639 1
p623
aI3
aa(lp624
I564
aV\u0627\u0644\u0631\u0628\u0639 2
p625
aI3
aa(lp626
I566
aV\u0627\u0644\u0631\u0628\u0639 3
p627
aI3
aa(lp628
I569
aV\u0627\u0644\u0631\u0628\u0639 4
p629
aI3
aa(lp630
I572
aV\u0627\u0644\u062d\u0632\u0628 58
p631
aI2
aa(lp632
I572
aV\u0627\u0644\u0631\u0628\u0639 1
p633
aI3
aa(lp634
I575
aV\u0627\u0644\u0631\u0628\u0639 2
p635
aI3
aa(lp636
I577
aV\u0627\u0644\u0631\u0628\u0639 3
p637
aI3
aa(lp638
I579
aV\u0627\u0644\u0631\u0628\u0639 4
p639
aI3
aa(lp640
I582
aV\u0627\u0644\u062c\u0632\u0621 30
p641
aI1
aa(lp642
I582
aV\u0627\u0644\u062d\u0632\u0628 59
p643
aI2
aa(lp644
I582
aV\u0627\u0644\u0631\u0628\u0639 1
p645
aI3
aa(lp646
I585
aV\u0627\u0644\u0631\u0628\u0639 2
p647
aI3
aa(lp648
I587
aV\u0627\u0644\u0631\u0628\u0639 3
p649
aI3
aa(lp650
I589
aV\u0627\u0644\u0631\u0628\u0639 4
p651
aI3
aa(lp652
I591
aV\u0627\u0644\u062d\u0632\u0628 60
p653
aI2
aa(lp654
I591
aV\u0627\u0644\u0631\u0628\u0639 1
p655
aI3
aa(lp656
I594
aV\u0627\u0644\u0631\u0628\u0639 2
p657
aI3
aa(lp658
I596
aV\u0627\u0644\u0631\u0628\u0639 3
p659
aI3
aa(lp660
I599
aV\u0627\u0644\u0631\u0628\u0639 4
p661
aI3
aa.