(lp1
(lp2
(lp3
I1
aV\u0627\u0644\u0641\u0627\u062a\u062d\u0629
p4
aa(lp5
I1
aS'1'
aa(lp6
I1
aS'2'
aa(lp7
I1
aS'3'
aa(lp8
I1
aS'4'
aa(lp9
I1
aS'5'
aa(lp10
I1
aS'6'
aa(lp11
I1
aS'7'
aaa(lp12
(lp13
I2
aV\u0627\u0644\u0628\u0642\u0631\u0629
p14
aa(lp15
I2
aS'1'
aa(lp16
I2
aS'2'
aa(lp17
I2
aS'3'
aa(lp18
I2
aS'4'
aa(lp19
I2
aS'5'
aa(lp20
I3
aS'6'
aa(lp21
I3
aS'7'
aa(lp22
I3
aS'8'
aa(lp23
I3
aS'9'
aa(lp24
I3
aS'10'
p25
aa(lp26
I3
aS'11'
p27
aa(lp28
I3
aS'12'
p29
aa(lp30
I3
aS'13'
p31
aa(lp32
I3
aS'14'
p33
aa(lp34
I3
aS'15'
p35
aa(lp36
I3
aS'16'
p37
aa(lp38
I4
aS'17'
p39
aa(lp40
I4
aS'18'
p41
aa(lp42
I4
aS'19'
p43
aa(lp44
I4
aS'20'
p45
aa(lp46
I4
aS'21'
p47
aa(lp48
I4
aS'22'
p49
aa(lp50
I4
aS'23'
p51
aa(lp52
I4
aS'24'
p53
aa(lp54
I5
aS'25'
p55
aa(lp56
I5
aS'26'
p57
aa(lp58
I5
aS'27'
p59
aa(lp60
I5
aS'28'
p61
aa(lp62
I5
aS'29'
p63
aa(lp64
I6
aS'30'
p65
aa(lp66
I6
aS'31'
p67
aa(lp68
I6
aS'32'
p69
aa(lp70
I6
aS'33'
p71
aa(lp72
I6
aS'34'
p73
aa(lp74
I6
aS'35'
p75
aa(lp76
I6
aS'36'
p77
aa(lp78
I6
aS'37'
p79
aa(lp80
I7
aS'38'
p81
aa(lp82
I7
aS'39'
p83
aa(lp84
I7
aS'40'
p85
aa(lp86
I7
aS'41'
p87
aa(lp88
I7
aS'42'
p89
aa(lp90
I7
aS'43'
p91
aa(lp92
I7
aS'44'
p93
aa(lp94
I7
aS'45'
p95
aa(lp96
I7
aS'46'
p97
aa(lp98
I7
aS'47'
p99
aa(lp100
I7
aS'48'
p101
aa(lp102
I8
aS'49'
p103
aa(lp104
I8
aS'50'
p105
aa(lp106
I8
aS'51'
p107
aa(lp108
I8
aS'52'
p109
aa(lp110
I8
aS'53'
p111
aa(lp112
I8
aS'54'
p113
aa(lp114
I8
aS'55'
p115
aa(lp116
I8
aS'56'
p117
aa(lp118
I8
aS'57'
p119
aa(lp120
I9
aS'58'
p121
aa(lp122
I9
aS'59'
p123
aa(lp124
I9
aS'60'
p125
aa(lp126
I9
aS'61'
p127
aa(lp128
I10
aS'62'
p129
aa(lp130
I10
aS'63'
p131
aa(lp132
I10
aS'64'
p133
aa(lp134
I10
aS'65'
p135
aa(lp136
I10
aS'66'
p137
aa(lp138
I10
aS'67'
p139
aa(lp140
I10
aS'68'
p141
aa(lp142
I10
aS'69'
p143
aa(lp144
I11
aS'70'
p145
aa(lp146
I11
aS'71'
p147
aa(lp148
I11
aS'72'
p149
aa(lp150
I11
aS'73'
p151
aa(lp152
I11
aS'74'
p153
aa(lp154
I11
aS'75'
p155
aa(lp156
I11
aS'76'
p157
aa(lp158
I12
aS'77'
p159
aa(lp160
I12
aS'78'
p161
aa(lp162
I12
aS'79'
p163
aa(lp164
I12
aS'80'
p165
aa(lp166
I12
aS'81'
p167
aa(lp168
I12
aS'82'
p169
aa(lp170
I12
aS'83'
p171
aa(lp172
I13
aS'84'
p173
aa(lp174
I13
aS'85'
p175
aa(lp176
I13
aS'86'
p177
aa(lp178
I13
aS'87'
p179
aa(lp180
I13
aS'88'
p181
aa(lp182
I14
aS'89'
p183
aa(lp184
I14
aS'90'
p185
aa(lp186
I14
aS'91'
p187
aa(lp188
I14
aS'92'
p189
aa(lp190
I14
aS'93'
p191
aa(lp192
I15
aS'94'
p193
aa(lp194
I15
aS'95'
p195
aa(lp196
I15
aS'96'
p197
aa(lp198
I15
aS'97'
p199
aa(lp200
I15
aS'98'
p201
aa(lp202
I15
aS'99'
p203
aa(lp204
I15
aS'100'
p205
aa(lp206
I15
aS'101'
p207
aa(lp208
I16
aS'102'
p209
aa(lp210
I16
aS'103'
p211
aa(lp212
I16
aS'104'
p213
aa(lp214
I16
aS'105'
p215
aa(lp216
I17
aS'106'
p217
aa(lp218
I17
aS'107'
p219
aa(lp220
I17
aS'108'
p221
aa(lp222
I17
aS'109'
p223
aa(lp224
I17
aS'110'
p225
aa(lp226
I17
aS'111'
p227
aa(lp228
I17
aS'112'
p229
aa(lp230
I18
aS'113'
p231
aa(lp232
I18
aS'114'
p233
aa(lp234
I18
aS'115'
p235
aa(lp236
I18
aS'116'
p237
aa(lp238
I18
aS'117'
p239
aa(lp240
I18
aS'118'
p241
aa(lp242
I18
aS'119'
p243
aa(lp244
I19
aS'120'
p245
aa(lp246
I19
aS'121'
p247
aa(lp248
I19
aS'122'
p249
aa(lp250
I19
aS'123'
p251
aa(lp252
I19
aS'124'
p253
aa(lp254
I19
aS'125'
p255
aa(lp256
I19
aS'126'
p257
aa(lp258
I20
aS'127'
p259
aa(lp260
I20
aS'128'
p261
aa(lp262
I20
aS'129'
p263
aa(lp264
I20
aS'130'
p265
aa(lp266
I20
aS'131'
p267
aa(lp268
I20
aS'132'
p269
aa(lp270
I20
aS'133'
p271
aa(lp272
I20
aS'134'
p273
aa(lp274
I21
aS'135'
p275
aa(lp276
I21
aS'136'
p277
aa(lp278
I21
aS'137'
p279
aa(lp280
I21
aS'138'
p281
aa(lp282
I21
aS'139'
p283
aa(lp284
I21
aS'140'
p285
aa(lp286
I21
aS'141'
p287
aa(lp288
I22
aS'142'
p289
aa(lp290
I22
aS'143'
p291
aa(lp292
I22
aS'144'
p293
aa(lp294
I22
aS'145'
p295
aa(lp296
I23
aS'146'
p297
aa(lp298
I23
aS'147'
p299
aa(lp300
I23
aS'148'
p301
aa(lp302
I23
aS'149'
p303
aa(lp304
I23
aS'150'
p305
aa(lp306
I23
aS'151'
p307
aa(lp308
I23
aS'152'
p309
aa(lp310
I23
aS'153'
p311
aa(lp312
I24
aS'154'
p313
aa(lp314
I24
aS'155'
p315
aa(lp316
I24
aS'156'
p317
aa(lp318
I24
aS'157'
p319
aa(lp320
I24
aS'158'
p321
aa(lp322
I24
aS'159'
p323
aa(lp324
I24
aS'160'
p325
aa(lp326
I24
aS'161'
p327
aa(lp328
I24
aS'162'
p329
aa(lp330
I24
aS'163'
p331
aa(lp332
I25
aS'164'
p333
aa(lp334
I25
aS'165'
p335
aa(lp336
I25
aS'166'
p337
aa(lp338
I25
aS'167'
p339
aa(lp340
I25
aS'168'
p341
aa(lp342
I25
aS'169'
p343
aa(lp344
I26
aS'170'
p345
aa(lp346
I26
aS'171'
p347
aa(lp348
I26
aS'172'
p349
aa(lp350
I26
aS'173'
p351
aa(lp352
I26
aS'174'
p353
aa(lp354
I26
aS'175'
p355
aa(lp356
I26
aS'176'
p357
aa(lp358
I27
aS'177'
p359
aa(lp360
I27
aS'178'
p361
aa(lp362
I27
aS'179'
p363
aa(lp364
I27
aS'180'
p365
aa(lp366
I27
aS'181'
p367
aa(lp368
I28
aS'182'
p369
aa(lp370
I28
aS'183'
p371
aa(lp372
I28
aS'184'
p373
aa(lp374
I28
aS'185'
p375
aa(lp376
I28
aS'186'
p377
aa(lp378
I29
aS'187'
p379
aa(lp380
I29
aS'188'
p381
aa(lp382
I29
aS'189'
p383
aa(lp384
I29
aS'190'
p385
aa(lp386
I30
aS'191'
p387
aa(lp388
I30
aS'192'
p389
aa(lp390
I30
aS'193'
p391
aa(lp392
I30
aS'194'
p393
aa(lp394
I30
aS'195'
p395
aa(lp396
I30
aS'196'
p397
aa(lp398
I31
aS'197'
p399
aa(lp400
I31
aS'198'
p401
aa(lp402
I31
aS'199'
p403
aa(lp404
I31
aS'200'
p405
aa(lp406
I31
aS'201'
p407
aa(lp408
I31
aS'202'
p409
aa(lp410
I32
aS'203'
p411
aa(lp412
I32
aS'204'
p413
aa(lp414
I32
aS'205'
p415
aa(lp416
I32
aS'206'
p417
aa(lp418
I32
aS'207'
p419
aa(lp420
I32
aS'208'
p421
aa(lp422
I32
aS'209'
p423
aa(lp424
I32
aS'210'
p425
aa(lp426
I33
aS'211'
p427
aa(lp428
I33
aS'212'
p429
aa(lp430
I33
aS'213'
p431
aa(lp432
I33
aS'214'
p433
aa(lp434
I33
aS'215'
p435
aa(lp436
I34
aS'216'
p437
aa(lp438
I34
aS'217'
p439
aa(lp440
I34
aS'218'
p441
aa(lp442
I34
aS'219'
p443
aa(lp444
I35
aS'220'
p445
aa(lp446
I35
aS'221'
p447
aa(lp448
I35
aS'222'
p449
aa(lp450
I35
aS'223'
p451
aa(lp452
I35
aS'224'
p453
aa(lp454
I36
aS'225'
p455
aa(lp456
I36
aS'226'
p457
aa(lp458
I36
aS'227'
p459
aa(lp460
I36
aS'228'
p461
aa(lp462
I36
aS'229'
p463
aa(lp464
I36
aS'230'
p465
aa(lp466
I37
aS'231'
p467
aa(lp468
I37
aS'232'
p469
aa(lp470
I37
aS'233'
p471
aa(lp472
I38
aS'234'
p473
aa(lp474
I38
aS'235'
p475
aa(lp476
I38
aS'236'
p477
aa(lp478
I38
aS'237'
p479
aa(lp480
I39
aS'238'
p481
aa(lp482
I39
aS'239'
p483
aa(lp484
I39
aS'240'
p485
aa(lp486
I39
aS'241'
p487
aa(lp488
I39
aS'242'
p489
aa(lp490
I39
aS'243'
p491
aa(lp492
I39
aS'244'
p493
aa(lp494
I39
aS'245'
p495
aa(lp496
I40
aS'246'
p497
aa(lp498
I40
aS'247'
p499
aa(lp500
I40
aS'248'
p501
aa(lp502
I41
aS'249'
p503
aa(lp504
I41
aS'250'
p505
aa(lp506
I41
aS'251'
p507
aa(lp508
I41
aS'252'
p509
aa(lp510
I42
aS'253'
p511
aa(lp512
I42
aS'254'
p513
aa(lp514
I42
aS'255'
p515
aa(lp516
I42
aS'256'
p517
aa(lp518
I43
aS'257'
p519
aa(lp520
I43
aS'258'
p521
aa(lp522
I43
aS'259'
p523
aa(lp524
I44
aS'260'
p525
aa(lp526
I44
aS'261'
p527
aa(lp528
I44
aS'262'
p529
aa(lp530
I44
aS'263'
p531
aa(lp532
I44
aS'264'
p533
aa(lp534
I45
aS'265'
p535
aa(lp536
I45
aS'266'
p537
aa(lp538
I45
aS'267'
p539
aa(lp540
I45
aS'268'
p541
aa(lp542
I45
aS'269'
p543
aa(lp544
I46
aS'270'
p545
aa(lp546
I46
aS'271'
p547
aa(lp548
I46
aS'272'
p549
aa(lp550
I46
aS'273'
p551
aa(lp552
I46
aS'274'
p553
aa(lp554
I47
aS'275'
p555
aa(lp556
I47
aS'276'
p557
aa(lp558
I47
aS'277'
p559
aa(lp560
I47
aS'278'
p561
aa(lp562
I47
aS'279'
p563
aa(lp564
I47
aS'280'
p565
aa(lp566
I47
aS'281'
p567
aa(lp568
I48
aS'282'
p569
aa(lp570
I49
aS'283'
p571
aa(lp572
I49
aS'284'
p573
aa(lp574
I49
aS'285'
p575
aa(lp576
I49
aS'286'
p577
aaa(lp578
(lp579
I50
aV\u0622\u0644 \u0639\u0645\u0631\u0627\u0646
p580
aa(lp581
I50
aS'1'
aa(lp582
I50
aS'2'
aa(lp583
I50
aS'3'
aa(lp584
I50
aS'4'
aa(lp585
I50
aS'5'
aa(lp586
I50
aS'6'
aa(lp587
I50
aS'7'
aa(lp588
I50
aS'8'
aa(lp589
I50
aS'9'
aa(lp590
I51
aS'10'
p591
aa(lp592
I51
aS'11'
p593
aa(lp594
I51
aS'12'
p595
aa(lp596
I51
aS'13'
p597
aa(lp598
I51
aS'14'
p599
aa(lp600
I51
aS'15'
p601
aa(lp602
I52
aS'16'
p603
aa(lp604
I52
aS'17'
p605
aa(lp606
I52
aS'18'
p607
aa(lp608
I52
aS'19'
p609
aa(lp610
I52
aS'20'
p611
aa(lp612
I52
aS'21'
p613
aa(lp614
I52
aS'22'
p615
aa(lp616
I53
aS'23'
p617
aa(lp618
I53
aS'24'
p619
aa(lp620
I53
aS'25'
p621
aa(lp622
I53
aS'26'
p623
aa(lp624
I53
aS'27'
p625
aa(lp626
I53
aS'28'
p627
aa(lp628
I53
aS'29'
p629
aa(lp630
I54
aS'30'
p631
aa(lp632
I54
aS'31'
p633
aa(lp634
I54
aS'32'
p635
aa(lp636
I54
aS'33'
p637
aa(lp638
I54
aS'34'
p639
aa(lp640
I54
aS'35'
p641
aa(lp642
I54
aS'36'
p643
aa(lp644
I54
aS'37'
p645
aa(lp646
I55
aS'38'
p647
aa(lp648
I55
aS'39'
p649
aa(lp650
I55
aS'40'
p651
aa(lp652
I55
aS'41'
p653
aa(lp654
I55
aS'42'
p655
aa(lp656
I55
aS'43'
p657
aa(lp658
I55
aS'44'
p659
aa(lp660
I55
aS'45'
p661
aa(lp662
I56
aS'46'
p663
aa(lp664
I56
aS'47'
p665
aa(lp666
I56
aS'48'
p667
aa(lp668
I56
aS'49'
p669
aa(lp670
I56
aS'50'
p671
aa(lp672
I56
aS'51'
p673
aa(lp674
I56
aS'52'
p675
aa(lp676
I57
aS'53'
p677
aa(lp678
I57
aS'54'
p679
aa(lp680
I57
aS'55'
p681
aa(lp682
I57
aS'56'
p683
aa(lp684
I57
aS'57'
p685
aa(lp686
I57
aS'58'
p687
aa(lp688
I57
aS'59'
p689
aa(lp690
I57
aS'60'
p691
aa(lp692
I57
aS'61'
p693
aa(lp694
I58
aS'62'
p695
aa(lp696
I58
aS'63'
p697
aa(lp698
I58
aS'64'
p699
aa(lp700
I58
aS'65'
p701
aa(lp702
I58
aS'66'
p703
aa(lp704
I58
aS'67'
p705
aa(lp706
I58
aS'68'
p707
aa(lp708
I58
aS'69'
p709
aa(lp710
I58
aS'70'
p711
aa(lp712
I59
aS'71'
p713
aa(lp714
I59
aS'72'
p715
aa(lp716
I59
aS'73'
p717
aa(lp718
I59
aS'74'
p719
aa(lp720
I59
aS'75'
p721
aa(lp722
I59
aS'76'
p723
aa(lp724
I59
aS'77'
p725
aa(lp726
I60
aS'78'
p727
aa(lp728
I60
aS'79'
p729
aa(lp730
I60
aS'80'
p731
aa(lp732
I60
aS'81'
p733
aa(lp734
I60
aS'82'
p735
aa(lp736
I60
aS'83'
p737
aa(lp738
I61
aS'84'
p739
aa(lp740
I61
aS'85'
p741
aa(lp742
I61
aS'86'
p743
aa(lp744
I61
aS'87'
p745
aa(lp746
I61
aS'88'
p747
aa(lp748
I61
aS'89'
p749
aa(lp750
I61
aS'90'
p751
aa(lp752
I61
aS'91'
p753
aa(lp754
I62
aS'92'
p755
aa(lp756
I62
aS'93'
p757
aa(lp758
I62
aS'94'
p759
aa(lp760
I62
aS'95'
p761
aa(lp762
I62
aS'96'
p763
aa(lp764
I62
aS'97'
p765
aa(lp766
I62
aS'98'
p767
aa(lp768
I62
aS'99'
p769
aa(lp770
I62
aS'100'
p771
aa(lp772
I63
aS'101'
p773
aa(lp774
I63
aS'102'
p775
aa(lp776
I63
aS'103'
p777
aa(lp778
I63
aS'104'
p779
aa(lp780
I63
aS'105'
p781
aa(lp782
I63
aS'106'
p783
aa(lp784
I63
aS'107'
p785
aa(lp786
I63
aS'108'
p787
aa(lp788
I64
aS'109'
p789
aa(lp790
I64
aS'110'
p791
aa(lp792
I64
aS'111'
p793
aa(lp794
I64
aS'112'
p795
aa(lp796
I64
aS'113'
p797
aa(lp798
I64
aS'114'
p799
aa(lp800
I64
aS'115'
p801
aa(lp802
I65
aS'116'
p803
aa(lp804
I65
aS'117'
p805
aa(lp806
I65
aS'118'
p807
aa(lp808
I65
aS'119'
p809
aa(lp810
I65
aS'120'
p811
aa(lp812
I65
aS'121'
p813
aa(lp814
I66
aS'122'
p815
aa(lp816
I66
aS'123'
p817
aa(lp818
I66
aS'124'
p819
aa(lp820
I66
aS'125'
p821
aa(lp822
I66
aS'126'
p823
aa(lp824
I66
aS'127'
p825
aa(lp826
I66
aS'128'
p827
aa(lp828
I66
aS'129'
p829
aa(lp830
I66
aS'130'
p831
aa(lp832
I66
aS'131'
p833
aa(lp834
I66
aS'132'
p835
aa(lp836
I67
aS'133'
p837
aa(lp838
I67
aS'134'
p839
aa(lp840
I67
aS'135'
p841
aa(lp842
I67
aS'136'
p843
aa(lp844
I67
aS'137'
p845
aa(lp846
I67
aS'138'
p847
aa(lp848
I67
aS'139'
p849
aa(lp850
I67
aS'140'
p851
aa(lp852
I68
aS'141'
p853
aa(lp854
I68
aS'142'
p855
aa(lp856
I68
aS'143'
p857
aa(lp858
I68
aS'144'
p859
aa(lp860
I68
aS'145'
p861
aa(lp862
I68
aS'146'
p863
aa(lp864
I68
aS'147'
p865
aa(lp866
I68
aS'148'
p867
aa(lp868
I69
aS'149'
p869
aa(lp870
I69
aS'150'
p871
aa(lp872
I69
aS'151'
p873
aa(lp874
I69
aS'152'
p875
aa(lp876
I69
aS'153'
p877
aa(lp878
I70
aS'154'
p879
aa(lp880
I70
aS'155'
p881
aa(lp882
I70
aS'156'
p883
aa(lp884
I70
aS'157'
p885
aa(lp886
I71
aS'158'
p887
aa(lp888
I71
aS'159'
p889
aa(lp890
I71
aS'160'
p891
aa(lp892
I71
aS'161'
p893
aa(lp894
I71
aS'162'
p895
aa(lp896
I71
aS'163'
p897
aa(lp898
I71
aS'164'
p899
aa(lp900
I71
aS'165'
p901
aa(lp902
I72
aS'166'
p903
aa(lp904
I72
aS'167'
p905
aa(lp906
I72
aS'168'
p907
aa(lp908
I72
aS'169'
p909
aa(lp910
I72
aS'170'
p911
aa(lp912
I72
aS'171'
p913
aa(lp914
I72
aS'172'
p915
aa(lp916
I72
aS'173'
p917
aa(lp918
I73
aS'174'
p919
aa(lp920
I73
aS'175'
p921
aa(lp922
I73
aS'176'
p923
aa(lp924
I73
aS'177'
p925
aa(lp926
I73
aS'178'
p927
aa(lp928
I73
aS'179'
p929
aa(lp930
I73
aS'180'
p931
aa(lp932
I74
aS'181'
p933
aa(lp934
I74
aS'182'
p935
aa(lp936
I74
aS'183'
p937
aa(lp938
I74
aS'184'
p939
aa(lp940
I74
aS'185'
p941
aa(lp942
I74
aS'186'
p943
aa(lp944
I75
aS'187'
p945
aa(lp946
I75
aS'188'
p947
aa(lp948
I75
aS'189'
p949
aa(lp950
I75
aS'190'
p951
aa(lp952
I75
aS'191'
p953
aa(lp954
I75
aS'192'
p955
aa(lp956
I75
aS'193'
p957
aa(lp958
I75
aS'194'
p959
aa(lp960
I76
aS'195'
p961
aa(lp962
I76
aS'196'
p963
aa(lp964
I76
aS'197'
p965
aa(lp966
I76
aS'198'
p967
aa(lp968
I76
aS'199'
p969
aa(lp970
I76
aS'200'
p971
aaa(lp972
(lp973
I77
aV\u0627\u0644\u0646\u0633\u0627\u0621
p974
aa(lp975
I77
aS'1'
aa(lp976
I77
aS'2'
aa(lp977
I77
aS'3'
aa(lp978
I77
aS'4'
aa(lp979
I77
aS'5'
aa(lp980
I77
aS'6'
aa(lp981
I78
aS'7'
aa(lp982
I78
aS'8'
aa(lp983
I78
aS'9'
aa(lp984
I78
aS'10'
p985
aa(lp986
I78
aS'11'
p987
aa(lp988
I79
aS'12'
p989
aa(lp990
I79
aS'13'
p991
aa(lp992
I79
aS'14'
p993
aa(lp994
I80
aS'15'
p995
aa(lp996
I80
aS'16'
p997
aa(lp998
I80
aS'17'
p999
aa(lp1000
I80
aS'18'
p1001
aa(lp1002
I80
aS'19'
p1003
aa(lp1004
I81
aS'20'
p1005
aa(lp1006
I81
aS'21'
p1007
aa(lp1008
I81
aS'22'
p1009
aa(lp1010
I81
aS'23'
p1011
aa(lp1012
I82
aS'24'
p1013
aa(lp1014
I82
aS'25'
p1015
aa(lp1016
I82
aS'26'
p1017
aa(lp1018
I83
aS'27'
p1019
aa(lp1020
I83
aS'28'
p1021
aa(lp1022
I83
aS'29'
p1023
aa(lp1024
I83
aS'30'
p1025
aa(lp1026
I83
aS'31'
p1027
aa(lp1028
I83
aS'32'
p1029
aa(lp1030
I83
aS'33'
p1031
aa(lp1032
I84
aS'34'
p1033
aa(lp1034
I84
aS'35'
p1035
aa(lp1036
I84
aS'36'
p1037
aa(lp1038
I84
aS'37'
p1039
aa(lp1040
I85
aS'38'
p1041
aa(lp1042
I85
aS'39'
p1043
aa(lp1044
I85
aS'40'
p1045
aa(lp1046
I85
aS'41'
p1047
aa(lp1048
I85
aS'42'
p1049
aa(lp1050
I85
aS'43'
p1051
aa(lp1052
I85
aS'44'
p1053
aa(lp1054
I86
aS'45'
p1055
aa(lp1056
I86
aS'46'
p1057
aa(lp1058
I86
aS'47'
p1059
aa(lp1060
I86
aS'48'
p1061
aa(lp1062
I86
aS'49'
p1063
aa(lp1064
I86
aS'50'
p1065
aa(lp1066
I86
aS'51'
p1067
aa(lp1068
I87
aS'52'
p1069
aa(lp1070
I87
aS'53'
p1071
aa(lp1072
I87
aS'54'
p1073
aa(lp1074
I87
aS'55'
p1075
aa(lp1076
I87
aS'56'
p1077
aa(lp1078
I87
aS'57'
p1079
aa(lp1080
I87
aS'58'
p1081
aa(lp1082
I87
aS'59'
p1083
aa(lp1084
I88
aS'60'
p1085
aa(lp1086
I88
aS'61'
p1087
aa(lp1088
I88
aS'62'
p1089
aa(lp1090
I88
aS'63'
p1091
aa(lp1092
I88
aS'64'
p1093
aa(lp1094
I88
aS'65'
p1095
aa(lp1096
I89
aS'66'
p1097
aa(lp1098
I89
aS'67'
p1099
aa(lp1100
I89
aS'68'
p1101
aa(lp1102
I89
aS'69'
p1103
aa(lp1104
I89
aS'70'
p1105
aa(lp1106
I89
aS'71'
p1107
aa(lp1108
I89
aS'72'
p1109
aa(lp1110
I89
aS'73'
p1111
aa(lp1112
I89
aS'74'
p1113
aa(lp1114
I90
aS'75'
p1115
aa(lp1116
I90
aS'76'
p1117
aa(lp1118
I90
aS'77'
p1119
aa(lp1120
I90
aS'78'
p1121
aa(lp1122
I90
aS'79'
p1123
aa(lp1124
I91
aS'80'
p1125
aa(lp1126
I91
aS'81'
p1127
aa(lp1128
I91
aS'82'
p1129
aa(lp1130
I91
aS'83'
p1131
aa(lp1132
I91
aS'84'
p1133
aa(lp1134
I91
aS'85'
p1135
aa(lp1136
I91
aS'86'
p1137
aa(lp1138
I92
aS'87'
p1139
aa(lp1140
I92
aS'88'
p1141
aa(lp1142
I92
aS'89'
p1143
aa(lp1144
I92
aS'90'
p1145
aa(lp1146
I92
aS'91'
p1147
aa(lp1148
I93
aS'92'
p1149
aa(lp1150
I93
aS'93'
p1151
aa(lp1152
I93
aS'94'
p1153
aa(lp1154
I94
aS'95'
p1155
aa(lp1156
I94
aS'96'
p1157
aa(lp1158
I94
aS'97'
p1159
aa(lp1160
I94
aS'98'
p1161
aa(lp1162
I94
aS'99'
p1163
aa(lp1164
I94
aS'100'
p1165
aa(lp1166
I94
aS'101'
p1167
aa(lp1168
I95
aS'102'
p1169
aa(lp1170
I95
aS'103'
p1171
aa(lp1172
I95
aS'104'
p1173
aa(lp1174
I95
aS'105'
p1175
aa(lp1176
I96
aS'106'
p1177
aa(lp1178
I96
aS'107'
p1179
aa(lp1180
I96
aS'108'
p1181
aa(lp1182
I96
aS'109'
p1183
aa(lp1184
I96
aS'110'
p1185
aa(lp1186
I96
aS'111'
p1187
aa(lp1188
I96
aS'112'
p1189
aa(lp1190
I96
aS'113'
p1191
aa(lp1192
I97
aS'114'
p1193
aa(lp1194
I97
aS'115'
p1195
aa(lp1196
I97
aS'116'
p1197
aa(lp1198
I97
aS'117'
p1199
aa(lp1200
I97
aS'118'
p1201
aa(lp1202
I97
aS'119'
p1203
aa(lp1204
I97
aS'120'
p1205
aa(lp1206
I97
aS'121'
p1207
aa(lp1208
I98
aS'122'
p1209
aa(lp1210
I98
aS'123'
p1211
aa(lp1212
I98
aS'124'
p1213
aa(lp1214
I98
aS'125'
p1215
aa(lp1216
I98
aS'126'
p1217
aa(lp1218
I98
aS'127'
p1219
aa(lp1220
I99
aS'128'
p1221
aa(lp1222
I99
aS'129'
p1223
aa(lp1224
I99
aS'130'
p1225
aa(lp1226
I99
aS'131'
p1227
aa(lp1228
I99
aS'132'
p1229
aa(lp1230
I99
aS'133'
p1231
aa(lp1232
I99
aS'134'
p1233
aa(lp1234
I100
aS'135'
p1235
aa(lp1236
I100
aS'136'
p1237
aa(lp1238
I100
aS'137'
p1239
aa(lp1240
I100
aS'138'
p1241
aa(lp1242
I100
aS'139'
p1243
aa(lp1244
I100
aS'140'
p1245
aa(lp1246
I101
aS'141'
p1247
aa(lp1248
I101
aS'142'
p1249
aa(lp1250
I101
aS'143'
p1251
aa(lp1252
I101
aS'144'
p1253
aa(lp1254
I101
aS'145'
p1255
aa(lp1256
I101
aS'146'
p1257
aa(lp1258
I101
aS'147'
p1259
aa(lp1260
I102
aS'148'
p1261
aa(lp1262
I102
aS'149'
p1263
aa(lp1264
I102
aS'150'
p1265
aa(lp1266
I102
aS'151'
p1267
aa(lp1268
I102
aS'152'
p1269
aa(lp1270
I102
aS'153'
p1271
aa(lp1272
I102
aS'154'
p1273
aa(lp1274
I103
aS'155'
p1275
aa(lp1276
I103
aS'156'
p1277
aa(lp1278
I103
aS'157'
p1279
aa(lp1280
I103
aS'158'
p1281
aa(lp1282
I103
aS'159'
p1283
aa(lp1284
I103
aS'160'
p1285
aa(lp1286
I103
aS'161'
p1287
aa(lp1288
I103
aS'162'
p1289
aa(lp1290
I104
aS'163'
p1291
aa(lp1292
I104
aS'164'
p1293
aa(lp1294
I104
aS'165'
p1295
aa(lp1296
I104
aS'166'
p1297
aa(lp1298
I104
aS'167'
p1299
aa(lp1300
I104
aS'168'
p1301
aa(lp1302
I104
aS'169'
p1303
aa(lp1304
I104
aS'170'
p1305
aa(lp1306
I105
aS'171'
p1307
aa(lp1308
I105
aS'172'
p1309
aa(lp1310
I105
aS'173'
p1311
aa(lp1312
I105
aS'174'
p1313
aa(lp1314
I105
aS'175'
p1315
aa(lp1316
I106
aS'176'
p1317
aaa(lp1318
(lp1319
I106
aV\u0627\u0644\u0645\u0627\u0626\u062f\u0629
p1320
aa(lp1321
I106
aS'1'
aa(lp1322
I106
aS'2'
aa(lp1323
I107
aS'3'
aa(lp1324
I107
aS'4'
aa(lp1325
I107
aS'5'
aa(lp1326
I108
aS'6'
aa(lp1327
I108
aS'7'
aa(lp1328
I108
aS'8'
aa(lp1329
I108
aS'9'
aa(lp1330
I109
aS'10'
p1331
aa(lp1332
I109
aS'11'
p1333
aa(lp1334
I109
aS'12'
p1335
aa(lp1336
I109
aS'13'
p1337
aa(lp1338
I110
aS'14'
p1339
aa(lp1340
I110
aS'15'
p1341
aa(lp1342
I110
aS'16'
p1343
aa(lp1344
I110
aS'17'
p1345
aa(lp1346
I111
aS'18'
p1347
aa(lp1348
I111
aS'19'
p1349
aa(lp1350
I111
aS'20'
p1351
aa(lp1352
I111
aS'21'
p1353
aa(lp1354
I111
aS'22'
p1355
aa(lp1356
I111
aS'23'
p1357
aa(lp1358
I112
aS'24'
p1359
aa(lp1360
I112
aS'25'
p1361
aa(lp1362
I112
aS'26'
p1363
aa(lp1364
I112
aS'27'
p1365
aa(lp1366
I112
aS'28'
p1367
aa(lp1368
I112
aS'29'
p1369
aa(lp1370
I112
aS'30'
p1371
aa(lp1372
I112
aS'31'
p1373
aa(lp1374
I113
aS'32'
p1375
aa(lp1376
I113
aS'33'
p1377
aa(lp1378
I113
aS'34'
p1379
aa(lp1380
I113
aS'35'
p1381
aa(lp1382
I113
aS'36'
p1383
aa(lp1384
I114
aS'37'
p1385
aa(lp1386
I114
aS'38'
p1387
aa(lp1388
I114
aS'39'
p1389
aa(lp1390
I114
aS'40'
p1391
aa(lp1392
I114
aS'41'
p1393
aa(lp1394
I115
aS'42'
p1395
aa(lp1396
I115
aS'43'
p1397
aa(lp1398
I115
aS'44'
p1399
aa(lp1400
I115
aS'45'
p1401
aa(lp1402
I116
aS'46'
p1403
aa(lp1404
I116
aS'47'
p1405
aa(lp1406
I116
aS'48'
p1407
aa(lp1408
I116
aS'49'
p1409
aa(lp1410
I116
aS'50'
p1411
aa(lp1412
I117
aS'51'
p1413
aa(lp1414
I117
aS'52'
p1415
aa(lp1416
I117
aS'53'
p1417
aa(lp1418
I117
aS'54'
p1419
aa(lp1420
I117
aS'55'
p1421
aa(lp1422
I117
aS'56'
p1423
aa(lp1424
I117
aS'57'
p1425
aa(lp1426
I118
aS'58'
p1427
aa(lp1428
I118
aS'59'
p1429
aa(lp1430
I118
aS'60'
p1431
aa(lp1432
I118
aS'61'
p1433
aa(lp1434
I118
aS'62'
p1435
aa(lp1436
I118
aS'63'
p1437
aa(lp1438
I118
aS'64'
p1439
aa(lp1440
I119
aS'65'
p1441
aa(lp1442
I119
aS'66'
p1443
aa(lp1444
I119
aS'67'
p1445
aa(lp1446
I119
aS'68'
p1447
aa(lp1448
I119
aS'69'
p1449
aa(lp1450
I119
aS'70'
p1451
aa(lp1452
I120
aS'71'
p1453
aa(lp1454
I120
aS'72'
p1455
aa(lp1456
I120
aS'73'
p1457
aa(lp1458
I120
aS'74'
p1459
aa(lp1460
I120
aS'75'
p1461
aa(lp1462
I120
aS'76'
p1463
aa(lp1464
I121
aS'77'
p1465
aa(lp1466
I121
aS'78'
p1467
aa(lp1468
I121
aS'79'
p1469
aa(lp1470
I121
aS'80'
p1471
aa(lp1472
I121
aS'81'
p1473
aa(lp1474
I121
aS'82'
p1475
aa(lp1476
I122
aS'83'
p1477
aa(lp1478
I122
aS'84'
p1479
aa(lp1480
I122
aS'85'
p1481
aa(lp1482
I122
aS'86'
p1483
aa(lp1484
I122
aS'87'
p1485
aa(lp1486
I122
aS'88'
p1487
aa(lp1488
I122
aS'89'
p1489
aa(lp1490
I123
aS'90'
p1491
aa(lp1492
I123
aS'91'
p1493
aa(lp1494
I123
aS'92'
p1495
aa(lp1496
I123
aS'93'
p1497
aa(lp1498
I123
aS'94'
p1499
aa(lp1500
I123
aS'95'
p1501
aa(lp1502
I124
aS'96'
p1503
aa(lp1504
I124
aS'97'
p1505
aa(lp1506
I124
aS'98'
p1507
aa(lp1508
I124
aS'99'
p1509
aa(lp1510
I124
aS'100'
p1511
aa(lp1512
I124
aS'101'
p1513
aa(lp1514
I124
aS'102'
p1515
aa(lp1516
I124
aS'103'
p1517
aa(lp1518
I125
aS'104'
p1519
aa(lp1520
I125
aS'105'
p1521
aa(lp1522
I125
aS'106'
p1523
aa(lp1524
I125
aS'107'
p1525
aa(lp1526
I125
aS'108'
p1527
aa(lp1528
I126
aS'109'
p1529
aa(lp1530
I126
aS'110'
p1531
aa(lp1532
I126
aS'111'
p1533
aa(lp1534
I126
aS'112'
p1535
aa(lp1536
I126
aS'113'
p1537
aa(lp1538
I127
aS'114'
p1539
aa(lp1540
I127
aS'115'
p1541
aa(lp1542
I127
aS'116'
p1543
aa(lp1544
I127
aS'117'
p1545
aa(lp1546
I127
aS'118'
p1547
aa(lp1548
I127
aS'119'
p1549
aa(lp1550
I127
aS'120'
p1551
aaa(lp1552
(lp1553
I128
aV\u0627\u0644\u0623\u0646\u0639\u0627\u0645
p1554
aa(lp1555
I128
aS'1'
aa(lp1556
I128
aS'2'
aa(lp1557
I128
aS'3'
aa(lp1558
I128
aS'4'
aa(lp1559
I128
aS'5'
aa(lp1560
I128
aS'6'
aa(lp1561
I128
aS'7'
aa(lp1562
I128
aS'8'
aa(lp1563
I129
aS'9'
aa(lp1564
I129
aS'10'
p1565
aa(lp1566
I129
aS'11'
p1567
aa(lp1568
I129
aS'12'
p1569
aa(lp1570
I129
aS'13'
p1571
aa(lp1572
I129
aS'14'
p1573
aa(lp1574
I129
aS'15'
p1575
aa(lp1576
I129
aS'16'
p1577
aa(lp1578
I129
aS'17'
p1579
aa(lp1580
I129
aS'18'
p1581
aa(lp1582
I130
aS'19'
p1583
aa(lp1584
I130
aS'20'
p1585
aa(lp1586
I130
aS'21'
p1587
aa(lp1588
I130
aS'22'
p1589
aa(lp1590
I130
aS'23'
p1591
aa(lp1592
I130
aS'24'
p1593
aa(lp1594
I130
aS'25'
p1595
aa(lp1596
I130
aS'26'
p1597
aa(lp1598
I130
aS'27'
p1599
aa(lp1600
I131
aS'28'
p1601
aa(lp1602
I131
aS'29'
p1603
aa(lp1604
I131
aS'30'
p1605
aa(lp1606
I131
aS'31'
p1607
aa(lp1608
I131
aS'32'
p1609
aa(lp1610
I131
aS'33'
p1611
aa(lp1612
I131
aS'34'
p1613
aa(lp1614
I131
aS'35'
p1615
aa(lp1616
I132
aS'36'
p1617
aa(lp1618
I132
aS'37'
p1619
aa(lp1620
I132
aS'38'
p1621
aa(lp1622
I132
aS'39'
p1623
aa(lp1624
I132
aS'40'
p1625
aa(lp1626
I132
aS'41'
p1627
aa(lp1628
I132
aS'42'
p1629
aa(lp1630
I132
aS'43'
p1631
aa(lp1632
I132
aS'44'
p1633
aa(lp1634
I133
aS'45'
p1635
aa(lp1636
I133
aS'46'
p1637
aa(lp1638
I133
aS'47'
p1639
aa(lp1640
I133
aS'48'
p1641
aa(lp1642
I133
aS'49'
p1643
aa(lp1644
I133
aS'50'
p1645
aa(lp1646
I133
aS'51'
p1647
aa(lp1648
I133
aS'52'
p1649
aa(lp1650
I134
aS'53'
p1651
aa(lp1652
I134
aS'54'
p1653
aa(lp1654
I134
aS'55'
p1655
aa(lp1656
I134
aS'56'
p1657
aa(lp1658
I134
aS'57'
p1659
aa(lp1660
I134
aS'58'
p1661
aa(lp1662
I134
aS'59'
p1663
aa(lp1664
I135
aS'60'
p1665
aa(lp1666
I135
aS'61'
p1667
aa(lp1668
I135
aS'62'
p1669
aa(lp1670
I135
aS'63'
p1671
aa(lp1672
I135
aS'64'
p1673
aa(lp1674
I135
aS'65'
p1675
aa(lp1676
I135
aS'66'
p1677
aa(lp1678
I135
aS'67'
p1679
aa(lp1680
I135
aS'68'
p1681
aa(lp1682
I136
aS'69'
p1683
aa(lp1684
I136
aS'70'
p1685
aa(lp1686
I136
aS'71'
p1687
aa(lp1688
I136
aS'72'
p1689
aa(lp1690
I136
aS'73'
p1691
aa(lp1692
I137
aS'74'
p1693
aa(lp1694
I137
aS'75'
p1695
aa(lp1696
I137
aS'76'
p1697
aa(lp1698
I137
aS'77'
p1699
aa(lp1700
I137
aS'78'
p1701
aa(lp1702
I137
aS'79'
p1703
aa(lp1704
I137
aS'80'
p1705
aa(lp1706
I137
aS'81'
p1707
aa(lp1708
I138
aS'82'
p1709
aa(lp1710
I138
aS'83'
p1711
aa(lp1712
I138
aS'84'
p1713
aa(lp1714
I138
aS'85'
p1715
aa(lp1716
I138
aS'86'
p1717
aa(lp1718
I138
aS'87'
p1719
aa(lp1720
I138
aS'88'
p1721
aa(lp1722
I138
aS'89'
p1723
aa(lp1724
I138
aS'90'
p1725
aa(lp1726
I139
aS'91'
p1727
aa(lp1728
I139
aS'92'
p1729
aa(lp1730
I139
aS'93'
p1731
aa(lp1732
I139
aS'94'
p1733
aa(lp1734
I140
aS'95'
p1735
aa(lp1736
I140
aS'96'
p1737
aa(lp1738
I140
aS'97'
p1739
aa(lp1740
I140
aS'98'
p1741
aa(lp1742
I140
aS'99'
p1743
aa(lp1744
I140
aS'100'
p1745
aa(lp1746
I140
aS'101'
p1747
aa(lp1748
I141
aS'102'
p1749
aa(lp1750
I141
aS'103'
p1751
aa(lp1752
I141
aS'104'
p1753
aa(lp1754
I141
aS'105'
p1755
aa(lp1756
I141
aS'106'
p1757
aa(lp1758
I141
aS'107'
p1759
aa(lp1760
I141
aS'108'
p1761
aa(lp1762
I141
aS'109'
p1763
aa(lp1764
I141
aS'110'
p1765
aa(lp1766
I142
aS'111'
p1767
aa(lp1768
I142
aS'112'
p1769
aa(lp1770
I142
aS'113'
p1771
aa(lp1772
I142
aS'114'
p1773
aa(lp1774
I142
aS'115'
p1775
aa(lp1776
I142
aS'116'
p1777
aa(lp1778
I142
aS'117'
p1779
aa(lp1780
I142
aS'118'
p1781
aa(lp1782
I143
aS'119'
p1783
aa(lp1784
I143
aS'120'
p1785
aa(lp1786
I143
aS'121'
p1787
aa(lp1788
I143
aS'122'
p1789
aa(lp1790
I143
aS'123'
p1791
aa(lp1792
I143
aS'124'
p1793
aa(lp1794
I144
aS'125'
p1795
aa(lp1796
I144
aS'126'
p1797
aa(lp1798
I144
aS'127'
p1799
aa(lp1800
I144
aS'128'
p1801
aa(lp1802
I144
aS'129'
p1803
aa(lp1804
I144
aS'130'
p1805
aa(lp1806
I144
aS'131'
p1807
aa(lp1808
I145
aS'132'
p1809
aa(lp1810
I145
aS'133'
p1811
aa(lp1812
I145
aS'134'
p1813
aa(lp1814
I145
aS'135'
p1815
aa(lp1816
I145
aS'136'
p1817
aa(lp1818
I145
aS'137'
p1819
aa(lp1820
I146
aS'138'
p1821
aa(lp1822
I146
aS'139'
p1823
aa(lp1824
I146
aS'140'
p1825
aa(lp1826
I146
aS'141'
p1827
aa(lp1828
I146
aS'142'
p1829
aa(lp1830
I147
aS'143'
p1831
aa(lp1832
I147
aS'144'
p1833
aa(lp1834
I147
aS'145'
p1835
aa(lp1836
I147
aS'146'
p1837
aa(lp1838
I148
aS'147'
p1839
aa(lp1840
I148
aS'148'
p1841
aa(lp1842
I148
aS'149'
p1843
aa(lp1844
I148
aS'150'
p1845
aa(lp1846
I148
aS'151'
p1847
aa(lp1848
I149
aS'152'
p1849
aa(lp1850
I149
aS'153'
p1851
aa(lp1852
I149
aS'154'
p1853
aa(lp1854
I149
aS'155'
p1855
aa(lp1856
I149
aS'156'
p1857
aa(lp1858
I149
aS'157'
p1859
aa(lp1860
I150
aS'158'
p1861
aa(lp1862
I150
aS'159'
p1863
aa(lp1864
I150
aS'160'
p1865
aa(lp1866
I150
aS'161'
p1867
aa(lp1868
I150
aS'162'
p1869
aa(lp1870
I150
aS'163'
p1871
aa(lp1872
I150
aS'164'
p1873
aa(lp1874
I150
aS'165'
p1875
aaa(lp1876
(lp1877
I151
aV\u0627\u0644\u0623\u0639\u0631\u0627\u0641
p1878
aa(lp1879
I151
aS'1'
aa(lp1880
I151
aS'2'
aa(lp1881
I151
aS'3'
aa(lp1882
I151
aS'4'
aa(lp1883
I151
aS'5'
aa(lp1884
I151
aS'6'
aa(lp1885
I151
aS'7'
aa(lp1886
I151
aS'8'
aa(lp1887
I151
aS'9'
aa(lp1888
I151
aS'10'
p1889
aa(lp1890
I151
aS'11'
p1891
aa(lp1892
I152
aS'12'
p1893
aa(lp1894
I152
aS'13'
p1895
aa(lp1896
I152
aS'14'
p1897
aa(lp1898
I152
aS'15'
p1899
aa(lp1900
I152
aS'16'
p1901
aa(lp1902
I152
aS'17'
p1903
aa(lp1904
I152
aS'18'
p1905
aa(lp1906
I152
aS'19'
p1907
aa(lp1908
I152
aS'20'
p1909
aa(lp1910
I152
aS'21'
p1911
aa(lp1912
I152
aS'22'
p1913
aa(lp1914
I153
aS'23'
p1915
aa(lp1916
I153
aS'24'
p1917
aa(lp1918
I153
aS'25'
p1919
aa(lp1920
I153
aS'26'
p1921
aa(lp1922
I153
aS'27'
p1923
aa(lp1924
I153
aS'28'
p1925
aa(lp1926
I153
aS'29'
p1927
aa(lp1928
I153
aS'30'
p1929
aa(lp1930
I154
aS'31'
p1931
aa(lp1932
I154
aS'32'
p1933
aa(lp1934
I154
aS'33'
p1935
aa(lp1936
I154
aS'34'
p1937
aa(lp1938
I154
aS'35'
p1939
aa(lp1940
I154
aS'36'
p1941
aa(lp1942
I154
aS'37'
p1943
aa(lp1944
I155
aS'38'
p1945
aa(lp1946
I155
aS'39'
p1947
aa(lp1948
I155
aS'40'
p1949
aa(lp1950
I155
aS'41'
p1951
aa(lp1952
I155
aS'42'
p1953
aa(lp1954
I155
aS'43'
p1955
aa(lp1956
I156
aS'44'
p1957
aa(lp1958
I156
aS'45'
p1959
aa(lp1960
I156
aS'46'
p1961
aa(lp1962
I156
aS'47'
p1963
aa(lp1964
I156
aS'48'
p1965
aa(lp1966
I156
aS'49'
p1967
aa(lp1968
I156
aS'50'
p1969
aa(lp1970
I156
aS'51'
p1971
aa(lp1972
I157
aS'52'
p1973
aa(lp1974
I157
aS'53'
p1975
aa(lp1976
I157
aS'54'
p1977
aa(lp1978
I157
aS'55'
p1979
aa(lp1980
I157
aS'56'
p1981
aa(lp1982
I157
aS'57'
p1983
aa(lp1984
I158
aS'58'
p1985
aa(lp1986
I158
aS'59'
p1987
aa(lp1988
I158
aS'60'
p1989
aa(lp1990
I158
aS'61'
p1991
aa(lp1992
I158
aS'62'
p1993
aa(lp1994
I158
aS'63'
p1995
aa(lp1996
I158
aS'64'
p1997
aa(lp1998
I158
aS'65'
p1999
aa(lp2000
I158
aS'66'
p2001
aa(lp2002
I158
aS'67'
p2003
aa(lp2004
I159
aS'68'
p2005
aa(lp2006
I159
aS'69'
p2007
aa(lp2008
I159
aS'70'
p2009
aa(lp2010
I159
aS'71'
p2011
aa(lp2012
I159
aS'72'
p2013
aa(lp2014
I159
aS'73'
p2015
aa(lp2016
I160
aS'74'
p2017
aa(lp2018
I160
aS'75'
p2019
aa(lp2020
I160
aS'76'
p2021
aa(lp2022
I160
aS'77'
p2023
aa(lp2024
I160
aS'78'
p2025
aa(lp2026
I160
aS'79'
p2027
aa(lp2028
I160
aS'80'
p2029
aa(lp2030
I160
aS'81'
p2031
aa(lp2032
I161
aS'82'
p2033
aa(lp2034
I161
aS'83'
p2035
aa(lp2036
I161
aS'84'
p2037
aa(lp2038
I161
aS'85'
p2039
aa(lp2040
I161
aS'86'
p2041
aa(lp2042
I161
aS'87'
p2043
aa(lp2044
I162
aS'88'
p2045
aa(lp2046
I162
aS'89'
p2047
aa(lp2048
I162
aS'90'
p2049
aa(lp2050
I162
aS'91'
p2051
aa(lp2052
I162
aS'92'
p2053
aa(lp2054
I162
aS'93'
p2055
aa(lp2056
I162
aS'94'
p2057
aa(lp2058
I162
aS'95'
p2059
aa(lp2060
I163
aS'96'
p2061
aa(lp2062
I163
aS'97'
p2063
aa(lp2064
I163
aS'98'
p2065
aa(lp2066
I163
aS'99'
p2067
aa(lp2068
I163
aS'100'
p2069
aa(lp2070
I163
aS'101'
p2071
aa(lp2072
I163
aS'102'
p2073
aa(lp2074
I163
aS'103'
p2075
aa(lp2076
I163
aS'104'
p2077
aa(lp2078
I164
aS'105'
p2079
aa(lp2080
I164
aS'106'
p2081
aa(lp2082
I164
aS'107'
p2083
aa(lp2084
I164
aS'108'
p2085
aa(lp2086
I164
aS'109'
p2087
aa(lp2088
I164
aS'110'
p2089
aa(lp2090
I164
aS'111'
p2091
aa(lp2092
I164
aS'112'
p2093
aa(lp2094
I164
aS'113'
p2095
aa(lp2096
I164
aS'114'
p2097
aa(lp2098
I164
aS'115'
p2099
aa(lp2100
I164
aS'116'
p2101
aa(lp2102
I164
aS'117'
p2103
aa(lp2104
I164
aS'118'
p2105
aa(lp2106
I164
aS'119'
p2107
aa(lp2108
I164
aS'120'
p2109
aa(lp2110
I165
aS'121'
p2111
aa(lp2112
I165
aS'122'
p2113
aa(lp2114
I165
aS'123'
p2115
aa(lp2116
I165
aS'124'
p2117
aa(lp2118
I165
aS'125'
p2119
aa(lp2120
I165
aS'126'
p2121
aa(lp2122
I165
aS'127'
p2123
aa(lp2124
I165
aS'128'
p2125
aa(lp2126
I165
aS'129'
p2127
aa(lp2128
I165
aS'130'
p2129
aa(lp2130
I166
aS'131'
p2131
aa(lp2132
I166
aS'132'
p2133
aa(lp2134
I166
aS'133'
p2135
aa(lp2136
I166
aS'134'
p2137
aa(lp2138
I166
aS'135'
p2139
aa(lp2140
I166
aS'136'
p2141
aa(lp2142
I166
aS'137'
p2143
aa(lp2144
I167
aS'138'
p2145
aa(lp2146
I167
aS'139'
p2147
aa(lp2148
I167
aS'140'
p2149
aa(lp2150
I167
aS'141'
p2151
aa(lp2152
I167
aS'142'
p2153
aa(lp2154
I167
aS'143'
p2155
aa(lp2156
I168
aS'144'
p2157
aa(lp2158
I168
aS'145'
p2159
aa(lp2160
I168
aS'146'
p2161
aa(lp2162
I168
aS'147'
p2163
aa(lp2164
I168
aS'148'
p2165
aa(lp2166
I168
aS'149'
p2167
aa(lp2168
I169
aS'150'
p2169
aa(lp2170
I169
aS'151'
p2171
aa(lp2172
I169
aS'152'
p2173
aa(lp2174
I169
aS'153'
p2175
aa(lp2176
I169
aS'154'
p2177
aa(lp2178
I169
aS'155'
p2179
aa(lp2180
I170
aS'156'
p2181
aa(lp2182
I170
aS'157'
p2183
aa(lp2184
I170
aS'158'
p2185
aa(lp2186
I170
aS'159'
p2187
aa(lp2188
I171
aS'160'
p2189
aa(lp2190
I171
aS'161'
p2191
aa(lp2192
I171
aS'162'
p2193
aa(lp2194
I171
aS'163'
p2195
aa(lp2196
I172
aS'164'
p2197
aa(lp2198
I172
aS'165'
p2199
aa(lp2200
I172
aS'166'
p2201
aa(lp2202
I172
aS'167'
p2203
aa(lp2204
I172
aS'168'
p2205
aa(lp2206
I172
aS'169'
p2207
aa(lp2208
I172
aS'170'
p2209
aa(lp2210
I173
aS'171'
p2211
aa(lp2212
I173
aS'172'
p2213
aa(lp2214
I173
aS'173'
p2215
aa(lp2216
I173
aS'174'
p2217
aa(lp2218
I173
aS'175'
p2219
aa(lp2220
I173
aS'176'
p2221
aa(lp2222
I173
aS'177'
p2223
aa(lp2224
I173
aS'178'
p2225
aa(lp2226
I174
aS'179'
p2227
aa(lp2228
I174
aS'180'
p2229
aa(lp2230
I174
aS'181'
p2231
aa(lp2232
I174
aS'182'
p2233
aa(lp2234
I174
aS'183'
p2235
aa(lp2236
I174
aS'184'
p2237
aa(lp2238
I174
aS'185'
p2239
aa(lp2240
I174
aS'186'
p2241
aa(lp2242
I174
aS'187'
p2243
aa(lp2244
I175
aS'188'
p2245
aa(lp2246
I175
aS'189'
p2247
aa(lp2248
I175
aS'190'
p2249
aa(lp2250
I175
aS'191'
p2251
aa(lp2252
I175
aS'192'
p2253
aa(lp2254
I175
aS'193'
p2255
aa(lp2256
I175
aS'194'
p2257
aa(lp2258
I175
aS'195'
p2259
aa(lp2260
I176
aS'196'
p2261
aa(lp2262
I176
aS'197'
p2263
aa(lp2264
I176
aS'198'
p2265
aa(lp2266
I176
aS'199'
p2267
aa(lp2268
I176
aS'200'
p2269
aa(lp2270
I176
aS'201'
p2271
aa(lp2272
I176
aS'202'
p2273
aa(lp2274
I176
aS'203'
p2275
aa(lp2276
I176
aS'204'
p2277
aa(lp2278
I176
aS'205'
p2279
aa(lp2280
I176
aS'206'
p2281
aaa(lp2282
(lp2283
I177
aV\u0627\u0644\u0623\u0646\u0641\u0627\u0644
p2284
aa(lp2285
I177
aS'1'
aa(lp2286
I177
aS'2'
aa(lp2287
I177
aS'3'
aa(lp2288
I177
aS'4'
aa(lp2289
I177
aS'5'
aa(lp2290
I177
aS'6'
aa(lp2291
I177
aS'7'
aa(lp2292
I177
aS'8'
aa(lp2293
I178
aS'9'
aa(lp2294
I178
aS'10'
p2295
aa(lp2296
I178
aS'11'
p2297
aa(lp2298
I178
aS'12'
p2299
aa(lp2300
I178
aS'13'
p2301
aa(lp2302
I178
aS'14'
p2303
aa(lp2304
I178
aS'15'
p2305
aa(lp2306
I178
aS'16'
p2307
aa(lp2308
I179
aS'17'
p2309
aa(lp2310
I179
aS'18'
p2311
aa(lp2312
I179
aS'19'
p2313
aa(lp2314
I179
aS'20'
p2315
aa(lp2316
I179
aS'21'
p2317
aa(lp2318
I179
aS'22'
p2319
aa(lp2320
I179
aS'23'
p2321
aa(lp2322
I179
aS'24'
p2323
aa(lp2324
I179
aS'25'
p2325
aa(lp2326
I180
aS'26'
p2327
aa(lp2328
I180
aS'27'
p2329
aa(lp2330
I180
aS'28'
p2331
aa(lp2332
I180
aS'29'
p2333
aa(lp2334
I180
aS'30'
p2335
aa(lp2336
I180
aS'31'
p2337
aa(lp2338
I180
aS'32'
p2339
aa(lp2340
I180
aS'33'
p2341
aa(lp2342
I181
aS'34'
p2343
aa(lp2344
I181
aS'35'
p2345
aa(lp2346
I181
aS'36'
p2347
aa(lp2348
I181
aS'37'
p2349
aa(lp2350
I181
aS'38'
p2351
aa(lp2352
I181
aS'39'
p2353
aa(lp2354
I181
aS'40'
p2355
aa(lp2356
I182
aS'41'
p2357
aa(lp2358
I182
aS'42'
p2359
aa(lp2360
I182
aS'43'
p2361
aa(lp2362
I182
aS'44'
p2363
aa(lp2364
I182
aS'45'
p2365
aa(lp2366
I183
aS'46'
p2367
aa(lp2368
I183
aS'47'
p2369
aa(lp2370
I183
aS'48'
p2371
aa(lp2372
I183
aS'49'
p2373
aa(lp2374
I183
aS'50'
p2375
aa(lp2376
I183
aS'51'
p2377
aa(lp2378
I183
aS'52'
p2379
aa(lp2380
I184
aS'53'
p2381
aa(lp2382
I184
aS'54'
p2383
aa(lp2384
I184
aS'55'
p2385
aa(lp2386
I184
aS'56'
p2387
aa(lp2388
I184
aS'57'
p2389
aa(lp2390
I184
aS'58'
p2391
aa(lp2392
I184
aS'59'
p2393
aa(lp2394
I184
aS'60'
p2395
aa(lp2396
I184
aS'61'
p2397
aa(lp2398
I185
aS'62'
p2399
aa(lp2400
I185
aS'63'
p2401
aa(lp2402
I185
aS'64'
p2403
aa(lp2404
I185
aS'65'
p2405
aa(lp2406
I185
aS'66'
p2407
aa(lp2408
I185
aS'67'
p2409
aa(lp2410
I185
aS'68'
p2411
aa(lp2412
I185
aS'69'
p2413
aa(lp2414
I186
aS'70'
p2415
aa(lp2416
I186
aS'71'
p2417
aa(lp2418
I186
aS'72'
p2419
aa(lp2420
I186
aS'73'
p2421
aa(lp2422
I186
aS'74'
p2423
aa(lp2424
I186
aS'75'
p2425
aaa(lp2426
(lp2427
I187
aV\u0627\u0644\u062a\u0648\u0628\u0629
p2428
aa(lp2429
I187
aS'1'
aa(lp2430
I187
aS'2'
aa(lp2431
I187
aS'3'
aa(lp2432
I187
aS'4'
aa(lp2433
I187
aS'5'
aa(lp2434
I187
aS'6'
aa(lp2435
I188
aS'7'
aa(lp2436
I188
aS'8'
aa(lp2437
I188
aS'9'
aa(lp2438
I188
aS'10'
p2439
aa(lp2440
I188
aS'11'
p2441
aa(lp2442
I188
aS'12'
p2443
aa(lp2444
I188
aS'13'
p2445
aa(lp2446
I189
aS'14'
p2447
aa(lp2448
I189
aS'15'
p2449
aa(lp2450
I189
aS'16'
p2451
aa(lp2452
I189
aS'17'
p2453
aa(lp2454
I189
aS'18'
p2455
aa(lp2456
I189
aS'19'
p2457
aa(lp2458
I189
aS'20'
p2459
aa(lp2460
I190
aS'21'
p2461
aa(lp2462
I190
aS'22'
p2463
aa(lp2464
I190
aS'23'
p2465
aa(lp2466
I190
aS'24'
p2467
aa(lp2468
I190
aS'25'
p2469
aa(lp2470
I190
aS'26'
p2471
aa(lp2472
I191
aS'27'
p2473
aa(lp2474
I191
aS'28'
p2475
aa(lp2476
I191
aS'29'
p2477
aa(lp2478
I191
aS'30'
p2479
aa(lp2480
I191
aS'31'
p2481
aa(lp2482
I192
aS'32'
p2483
aa(lp2484
I192
aS'33'
p2485
aa(lp2486
I192
aS'34'
p2487
aa(lp2488
I192
aS'35'
p2489
aa(lp2490
I192
aS'36'
p2491
aa(lp2492
I193
aS'37'
p2493
aa(lp2494
I193
aS'38'
p2495
aa(lp2496
I193
aS'39'
p2497
aa(lp2498
I193
aS'40'
p2499
aa(lp2500
I194
aS'41'
p2501
aa(lp2502
I194
aS'42'
p2503
aa(lp2504
I194
aS'43'
p2505
aa(lp2506
I194
aS'44'
p2507
aa(lp2508
I194
aS'45'
p2509
aa(lp2510
I194
aS'46'
p2511
aa(lp2512
I194
aS'47'
p2513
aa(lp2514
I195
aS'48'
p2515
aa(lp2516
I195
aS'49'
p2517
aa(lp2518
I195
aS'50'
p2519
aa(lp2520
I195
aS'51'
p2521
aa(lp2522
I195
aS'52'
p2523
aa(lp2524
I195
aS'53'
p2525
aa(lp2526
I195
aS'54'
p2527
aa(lp2528
I196
aS'55'
p2529
aa(lp2530
I196
aS'56'
p2531
aa(lp2532
I196
aS'57'
p2533
aa(lp2534
I196
aS'58'
p2535
aa(lp2536
I196
aS'59'
p2537
aa(lp2538
I196
aS'60'
p2539
aa(lp2540
I196
aS'61'
p2541
aa(lp2542
I197
aS'62'
p2543
aa(lp2544
I197
aS'63'
p2545
aa(lp2546
I197
aS'64'
p2547
aa(lp2548
I197
aS'65'
p2549
aa(lp2550
I197
aS'66'
p2551
aa(lp2552
I197
aS'67'
p2553
aa(lp2554
I197
aS'68'
p2555
aa(lp2556
I198
aS'69'
p2557
aa(lp2558
I198
aS'70'
p2559
aa(lp2560
I198
aS'71'
p2561
aa(lp2562
I198
aS'72'
p2563
aa(lp2564
I199
aS'73'
p2565
aa(lp2566
I199
aS'74'
p2567
aa(lp2568
I199
aS'75'
p2569
aa(lp2570
I199
aS'76'
p2571
aa(lp2572
I199
aS'77'
p2573
aa(lp2574
I199
aS'78'
p2575
aa(lp2576
I199
aS'79'
p2577
aa(lp2578
I200
aS'80'
p2579
aa(lp2580
I200
aS'81'
p2581
aa(lp2582
I200
aS'82'
p2583
aa(lp2584
I200
aS'83'
p2585
aa(lp2586
I200
aS'84'
p2587
aa(lp2588
I200
aS'85'
p2589
aa(lp2590
I200
aS'86'
p2591
aa(lp2592
I201
aS'87'
p2593
aa(lp2594
I201
aS'88'
p2595
aa(lp2596
I201
aS'89'
p2597
aa(lp2598
I201
aS'90'
p2599
aa(lp2600
I201
aS'91'
p2601
aa(lp2602
I201
aS'92'
p2603
aa(lp2604
I201
aS'93'
p2605
aa(lp2606
I202
aS'94'
p2607
aa(lp2608
I202
aS'95'
p2609
aa(lp2610
I202
aS'96'
p2611
aa(lp2612
I202
aS'97'
p2613
aa(lp2614
I202
aS'98'
p2615
aa(lp2616
I202
aS'99'
p2617
aa(lp2618
I203
aS'100'
p2619
aa(lp2620
I203
aS'101'
p2621
aa(lp2622
I203
aS'102'
p2623
aa(lp2624
I203
aS'103'
p2625
aa(lp2626
I203
aS'104'
p2627
aa(lp2628
I203
aS'105'
p2629
aa(lp2630
I203
aS'106'
p2631
aa(lp2632
I204
aS'107'
p2633
aa(lp2634
I204
aS'108'
p2635
aa(lp2636
I204
aS'109'
p2637
aa(lp2638
I204
aS'110'
p2639
aa(lp2640
I204
aS'111'
p2641
aa(lp2642
I205
aS'112'
p2643
aa(lp2644
I205
aS'113'
p2645
aa(lp2646
I205
aS'114'
p2647
aa(lp2648
I205
aS'115'
p2649
aa(lp2650
I205
aS'116'
p2651
aa(lp2652
I205
aS'117'
p2653
aa(lp2654
I206
aS'118'
p2655
aa(lp2656
I206
aS'119'
p2657
aa(lp2658
I206
aS'120'
p2659
aa(lp2660
I206
aS'121'
p2661
aa(lp2662
I206
aS'122'
p2663
aa(lp2664
I207
aS'123'
p2665
aa(lp2666
I207
aS'124'
p2667
aa(lp2668
I207
aS'125'
p2669
aa(lp2670
I207
aS'126'
p2671
aa(lp2672
I207
aS'127'
p2673
aa(lp2674
I207
aS'128'
p2675
aa(lp2676
I207
aS'129'
p2677
aaa(lp2678
(lp2679
I208
aV\u064a\u0648\u0646\u0633
p2680
aa(lp2681
I208
aS'1'
aa(lp2682
I208
aS'2'
aa(lp2683
I208
aS'3'
aa(lp2684
I208
aS'4'
aa(lp2685
I208
aS'5'
aa(lp2686
I208
aS'6'
aa(lp2687
I209
aS'7'
aa(lp2688
I209
aS'8'
aa(lp2689
I209
aS'9'
aa(lp2690
I209
aS'10'
p2691
aa(lp2692
I209
aS'11'
p2693
aa(lp2694
I209
aS'12'
p2695
aa(lp2696
I209
aS'13'
p2697
aa(lp2698
I209
aS'14'
p2699
aa(lp2700
I210
aS'15'
p2701
aa(lp2702
I210
aS'16'
p2703
aa(lp2704
I210
aS'17'
p2705
aa(lp2706
I210
aS'18'
p2707
aa(lp2708
I210
aS'19'
p2709
aa(lp2710
I210
aS'20'
p2711
aa(lp2712
I211
aS'21'
p2713
aa(lp2714
I211
aS'22'
p2715
aa(lp2716
I211
aS'23'
p2717
aa(lp2718
I211
aS'24'
p2719
aa(lp2720
I211
aS'25'
p2721
aa(lp2722
I212
aS'26'
p2723
aa(lp2724
I212
aS'27'
p2725
aa(lp2726
I212
aS'28'
p2727
aa(lp2728
I212
aS'29'
p2729
aa(lp2730
I212
aS'30'
p2731
aa(lp2732
I212
aS'31'
p2733
aa(lp2734
I212
aS'32'
p2735
aa(lp2736
I212
aS'33'
p2737
aa(lp2738
I213
aS'34'
p2739
aa(lp2740
I213
aS'35'
p2741
aa(lp2742
I213
aS'36'
p2743
aa(lp2744
I213
aS'37'
p2745
aa(lp2746
I213
aS'38'
p2747
aa(lp2748
I213
aS'39'
p2749
aa(lp2750
I213
aS'40'
p2751
aa(lp2752
I213
aS'41'
p2753
aa(lp2754
I213
aS'42'
p2755
aa(lp2756
I214
aS'43'
p2757
aa(lp2758
I214
aS'44'
p2759
aa(lp2760
I214
aS'45'
p2761
aa(lp2762
I214
aS'46'
p2763
aa(lp2764
I214
aS'47'
p2765
aa(lp2766
I214
aS'48'
p2767
aa(lp2768
I214
aS'49'
p2769
aa(lp2770
I214
aS'50'
p2771
aa(lp2772
I214
aS'51'
p2773
aa(lp2774
I214
aS'52'
p2775
aa(lp2776
I214
aS'53'
p2777
aa(lp2778
I215
aS'54'
p2779
aa(lp2780
I215
aS'55'
p2781
aa(lp2782
I215
aS'56'
p2783
aa(lp2784
I215
aS'57'
p2785
aa(lp2786
I215
aS'58'
p2787
aa(lp2788
I215
aS'59'
p2789
aa(lp2790
I215
aS'60'
p2791
aa(lp2792
I215
aS'61'
p2793
aa(lp2794
I216
aS'62'
p2795
aa(lp2796
I216
aS'63'
p2797
aa(lp2798
I216
aS'64'
p2799
aa(lp2800
I216
aS'65'
p2801
aa(lp2802
I216
aS'66'
p2803
aa(lp2804
I216
aS'67'
p2805
aa(lp2806
I216
aS'68'
p2807
aa(lp2808
I216
aS'69'
p2809
aa(lp2810
I216
aS'70'
p2811
aa(lp2812
I217
aS'71'
p2813
aa(lp2814
I217
aS'72'
p2815
aa(lp2816
I217
aS'73'
p2817
aa(lp2818
I217
aS'74'
p2819
aa(lp2820
I217
aS'75'
p2821
aa(lp2822
I217
aS'76'
p2823
aa(lp2824
I217
aS'77'
p2825
aa(lp2826
I217
aS'78'
p2827
aa(lp2828
I218
aS'79'
p2829
aa(lp2830
I218
aS'80'
p2831
aa(lp2832
I218
aS'81'
p2833
aa(lp2834
I218
aS'82'
p2835
aa(lp2836
I218
aS'83'
p2837
aa(lp2838
I218
aS'84'
p2839
aa(lp2840
I218
aS'85'
p2841
aa(lp2842
I218
aS'86'
p2843
aa(lp2844
I218
aS'87'
p2845
aa(lp2846
I218
aS'88'
p2847
aa(lp2848
I219
aS'89'
p2849
aa(lp2850
I219
aS'90'
p2851
aa(lp2852
I219
aS'91'
p2853
aa(lp2854
I219
aS'92'
p2855
aa(lp2856
I219
aS'93'
p2857
aa(lp2858
I219
aS'94'
p2859
aa(lp2860
I219
aS'95'
p2861
aa(lp2862
I219
aS'96'
p2863
aa(lp2864
I219
aS'97'
p2865
aa(lp2866
I220
aS'98'
p2867
aa(lp2868
I220
aS'99'
p2869
aa(lp2870
I220
aS'100'
p2871
aa(lp2872
I220
aS'101'
p2873
aa(lp2874
I220
aS'102'
p2875
aa(lp2876
I220
aS'103'
p2877
aa(lp2878
I220
aS'104'
p2879
aa(lp2880
I220
aS'105'
p2881
aa(lp2882
I220
aS'106'
p2883
aa(lp2884
I221
aS'107'
p2885
aa(lp2886
I221
aS'108'
p2887
aa(lp2888
I221
aS'109'
p2889
aaa(lp2890
(lp2891
I221
aV\u0647\u0648\u062f
p2892
aa(lp2893
I221
aS'1'
aa(lp2894
I221
aS'2'
aa(lp2895
I221
aS'3'
aa(lp2896
I221
aS'4'
aa(lp2897
I221
aS'5'
aa(lp2898
I222
aS'6'
aa(lp2899
I222
aS'7'
aa(lp2900
I222
aS'8'
aa(lp2901
I222
aS'9'
aa(lp2902
I222
aS'10'
p2903
aa(lp2904
I222
aS'11'
p2905
aa(lp2906
I222
aS'12'
p2907
aa(lp2908
I223
aS'13'
p2909
aa(lp2910
I223
aS'14'
p2911
aa(lp2912
I223
aS'15'
p2913
aa(lp2914
I223
aS'16'
p2915
aa(lp2916
I223
aS'17'
p2917
aa(lp2918
I223
aS'18'
p2919
aa(lp2920
I223
aS'19'
p2921
aa(lp2922
I224
aS'20'
p2923
aa(lp2924
I224
aS'21'
p2925
aa(lp2926
I224
aS'22'
p2927
aa(lp2928
I224
aS'23'
p2929
aa(lp2930
I224
aS'24'
p2931
aa(lp2932
I224
aS'25'
p2933
aa(lp2934
I224
aS'26'
p2935
aa(lp2936
I224
aS'27'
p2937
aa(lp2938
I224
aS'28'
p2939
aa(lp2940
I225
aS'29'
p2941
aa(lp2942
I225
aS'30'
p2943
aa(lp2944
I225
aS'31'
p2945
aa(lp2946
I225
aS'32'
p2947
aa(lp2948
I225
aS'33'
p2949
aa(lp2950
I225
aS'34'
p2951
aa(lp2952
I225
aS'35'
p2953
aa(lp2954
I225
aS'36'
p2955
aa(lp2956
I225
aS'37'
p2957
aa(lp2958
I226
aS'38'
p2959
aa(lp2960
I226
aS'39'
p2961
aa(lp2962
I226
aS'40'
p2963
aa(lp2964
I226
aS'41'
p2965
aa(lp2966
I226
aS'42'
p2967
aa(lp2968
I226
aS'43'
p2969
aa(lp2970
I226
aS'44'
p2971
aa(lp2972
I226
aS'45'
p2973
aa(lp2974
I227
aS'46'
p2975
aa(lp2976
I227
aS'47'
p2977
aa(lp2978
I227
aS'48'
p2979
aa(lp2980
I227
aS'49'
p2981
aa(lp2982
I227
aS'50'
p2983
aa(lp2984
I227
aS'51'
p2985
aa(lp2986
I227
aS'52'
p2987
aa(lp2988
I227
aS'53'
p2989
aa(lp2990
I228
aS'54'
p2991
aa(lp2992
I228
aS'55'
p2993
aa(lp2994
I228
aS'56'
p2995
aa(lp2996
I228
aS'57'
p2997
aa(lp2998
I228
aS'58'
p2999
aa(lp3000
I228
aS'59'
p3001
aa(lp3002
I228
aS'60'
p3003
aa(lp3004
I228
aS'61'
p3005
aa(lp3006
I228
aS'62'
p3007
aa(lp3008
I229
aS'63'
p3009
aa(lp3010
I229
aS'64'
p3011
aa(lp3012
I229
aS'65'
p3013
aa(lp3014
I229
aS'66'
p3015
aa(lp3016
I229
aS'67'
p3017
aa(lp3018
I229
aS'68'
p3019
aa(lp3020
I229
aS'69'
p3021
aa(lp3022
I229
aS'70'
p3023
aa(lp3024
I229
aS'71'
p3025
aa(lp3026
I230
aS'72'
p3027
aa(lp3028
I230
aS'73'
p3029
aa(lp3030
I230
aS'74'
p3031
aa(lp3032
I230
aS'75'
p3033
aa(lp3034
I230
aS'76'
p3035
aa(lp3036
I230
aS'77'
p3037
aa(lp3038
I230
aS'78'
p3039
aa(lp3040
I230
aS'79'
p3041
aa(lp3042
I230
aS'80'
p3043
aa(lp3044
I230
aS'81'
p3045
aa(lp3046
I231
aS'82'
p3047
aa(lp3048
I231
aS'83'
p3049
aa(lp3050
I231
aS'84'
p3051
aa(lp3052
I231
aS'85'
p3053
aa(lp3054
I231
aS'86'
p3055
aa(lp3056
I231
aS'87'
p3057
aa(lp3058
I231
aS'88'
p3059
aa(lp3060
I232
aS'89'
p3061
aa(lp3062
I232
aS'90'
p3063
aa(lp3064
I232
aS'91'
p3065
aa(lp3066
I232
aS'92'
p3067
aa(lp3068
I232
aS'93'
p3069
aa(lp3070
I232
aS'94'
p3071
aa(lp3072
I232
aS'95'
p3073
aa(lp3074
I232
aS'96'
p3075
aa(lp3076
I232
aS'97'
p3077
aa(lp3078
I233
aS'98'
p3079
aa(lp3080
I233
aS'99'
p3081
aa(lp3082
I233
aS'100'
p3083
aa(lp3084
I233
aS'101'
p3085
aa(lp3086
I233
aS'102'
p3087
aa(lp3088
I233
aS'103'
p3089
aa(lp3090
I233
aS'104'
p3091
aa(lp3092
I233
aS'105'
p3093
aa(lp3094
I233
aS'106'
p3095
aa(lp3096
I233
aS'107'
p3097
aa(lp3098
I233
aS'108'
p3099
aa(lp3100
I234
aS'109'
p3101
aa(lp3102
I234
aS'110'
p3103
aa(lp3104
I234
aS'111'
p3105
aa(lp3106
I234
aS'112'
p3107
aa(lp3108
I234
aS'113'
p3109
aa(lp3110
I234
aS'114'
p3111
aa(lp3112
I234
aS'115'
p3113
aa(lp3114
I234
aS'116'
p3115
aa(lp3116
I234
aS'117'
p3117
aa(lp3118
I235
aS'118'
p3119
aa(lp3120
I235
aS'119'
p3121
aa(lp3122
I235
aS'120'
p3123
aa(lp3124
I235
aS'121'
p3125
aa(lp3126
I235
aS'122'
p3127
aa(lp3128
I235
aS'123'
p3129
aaa(lp3130
(lp3131
I235
aV\u064a\u0648\u0633\u0641
p3132
aa(lp3133
I235
aS'1'
aa(lp3134
I235
aS'2'
aa(lp3135
I235
aS'3'
aa(lp3136
I235
aS'4'
aa(lp3137
I236
aS'5'
aa(lp3138
I236
aS'6'
aa(lp3139
I236
aS'7'
aa(lp3140
I236
aS'8'
aa(lp3141
I236
aS'9'
aa(lp3142
I236
aS'10'
p3143
aa(lp3144
I236
aS'11'
p3145
aa(lp3146
I236
aS'12'
p3147
aa(lp3148
I236
aS'13'
p3149
aa(lp3150
I236
aS'14'
p3151
aa(lp3152
I237
aS'15'
p3153
aa(lp3154
I237
aS'16'
p3155
aa(lp3156
I237
aS'17'
p3157
aa(lp3158
I237
aS'18'
p3159
aa(lp3160
I237
aS'19'
p3161
aa(lp3162
I237
aS'20'
p3163
aa(lp3164
I237
aS'21'
p3165
aa(lp3166
I237
aS'22'
p3167
aa(lp3168
I238
aS'23'
p3169
aa(lp3170
I238
aS'24'
p3171
aa(lp3172
I238
aS'25'
p3173
aa(lp3174
I238
aS'26'
p3175
aa(lp3176
I238
aS'27'
p3177
aa(lp3178
I238
aS'28'
p3179
aa(lp3180
I238
aS'29'
p3181
aa(lp3182
I238
aS'30'
p3183
aa(lp3184
I239
aS'31'
p3185
aa(lp3186
I239
aS'32'
p3187
aa(lp3188
I239
aS'33'
p3189
aa(lp3190
I239
aS'34'
p3191
aa(lp3192
I239
aS'35'
p3193
aa(lp3194
I239
aS'36'
p3195
aa(lp3196
I239
aS'37'
p3197
aa(lp3198
I240
aS'38'
p3199
aa(lp3200
I240
aS'39'
p3201
aa(lp3202
I240
aS'40'
p3203
aa(lp3204
I240
aS'41'
p3205
aa(lp3206
I240
aS'42'
p3207
aa(lp3208
I240
aS'43'
p3209
aa(lp3210
I241
aS'44'
p3211
aa(lp3212
I241
aS'45'
p3213
aa(lp3214
I241
aS'46'
p3215
aa(lp3216
I241
aS'47'
p3217
aa(lp3218
I241
aS'48'
p3219
aa(lp3220
I241
aS'49'
p3221
aa(lp3222
I241
aS'50'
p3223
aa(lp3224
I241
aS'51'
p3225
aa(lp3226
I241
aS'52'
p3227
aa(lp3228
I242
aS'53'
p3229
aa(lp3230
I242
aS'54'
p3231
aa(lp3232
I242
aS'55'
p3233
aa(lp3234
I242
aS'56'
p3235
aa(lp3236
I242
aS'57'
p3237
aa(lp3238
I242
aS'58'
p3239
aa(lp3240
I242
aS'59'
p3241
aa(lp3242
I242
aS'60'
p3243
aa(lp3244
I242
aS'61'
p3245
aa(lp3246
I242
aS'62'
p3247
aa(lp3248
I242
aS'63'
p3249
aa(lp3250
I243
aS'64'
p3251
aa(lp3252
I243
aS'65'
p3253
aa(lp3254
I243
aS'66'
p3255
aa(lp3256
I243
aS'67'
p3257
aa(lp3258
I243
aS'68'
p3259
aa(lp3260
I243
aS'69'
p3261
aa(lp3262
I244
aS'70'
p3263
aa(lp3264
I244
aS'71'
p3265
aa(lp3266
I244
aS'72'
p3267
aa(lp3268
I244
aS'73'
p3269
aa(lp3270
I244
aS'74'
p3271
aa(lp3272
I244
aS'75'
p3273
aa(lp3274
I244
aS'76'
p3275
aa(lp3276
I244
aS'77'
p3277
aa(lp3278
I244
aS'78'
p3279
aa(lp3280
I245
aS'79'
p3281
aa(lp3282
I245
aS'80'
p3283
aa(lp3284
I245
aS'81'
p3285
aa(lp3286
I245
aS'82'
p3287
aa(lp3288
I245
aS'83'
p3289
aa(lp3290
I245
aS'84'
p3291
aa(lp3292
I245
aS'85'
p3293
aa(lp3294
I245
aS'86'
p3295
aa(lp3296
I246
aS'87'
p3297
aa(lp3298
I246
aS'88'
p3299
aa(lp3300
I246
aS'89'
p3301
aa(lp3302
I246
aS'90'
p3303
aa(lp3304
I246
aS'91'
p3305
aa(lp3306
I246
aS'92'
p3307
aa(lp3308
I246
aS'93'
p3309
aa(lp3310
I246
aS'94'
p3311
aa(lp3312
I246
aS'95'
p3313
aa(lp3314
I247
aS'96'
p3315
aa(lp3316
I247
aS'97'
p3317
aa(lp3318
I247
aS'98'
p3319
aa(lp3320
I247
aS'99'
p3321
aa(lp3322
I247
aS'100'
p3323
aa(lp3324
I247
aS'101'
p3325
aa(lp3326
I247
aS'102'
p3327
aa(lp3328
I247
aS'103'
p3329
aa(lp3330
I248
aS'104'
p3331
aa(lp3332
I248
aS'105'
p3333
aa(lp3334
I248
aS'106'
p3335
aa(lp3336
I248
aS'107'
p3337
aa(lp3338
I248
aS'108'
p3339
aa(lp3340
I248
aS'109'
p3341
aa(lp3342
I248
aS'110'
p3343
aa(lp3344
I248
aS'111'
p3345
aaa(lp3346
(lp3347
I249
aV\u0627\u0644\u0631\u0639\u062f
p3348
aa(lp3349
I249
aS'1'
aa(lp3350
I249
aS'2'
aa(lp3351
I249
aS'3'
aa(lp3352
I249
aS'4'
aa(lp3353
I249
aS'5'
aa(lp3354
I250
aS'6'
aa(lp3355
I250
aS'7'
aa(lp3356
I250
aS'8'
aa(lp3357
I250
aS'9'
aa(lp3358
I250
aS'10'
p3359
aa(lp3360
I250
aS'11'
p3361
aa(lp3362
I250
aS'12'
p3363
aa(lp3364
I250
aS'13'
p3365
aa(lp3366
I251
aS'14'
p3367
aa(lp3368
I251
aS'15'
p3369
aa(lp3370
I251
aS'16'
p3371
aa(lp3372
I251
aS'17'
p3373
aa(lp3374
I251
aS'18'
p3375
aa(lp3376
I252
aS'19'
p3377
aa(lp3378
I252
aS'20'
p3379
aa(lp3380
I252
aS'21'
p3381
aa(lp3382
I252
aS'22'
p3383
aa(lp3384
I252
aS'23'
p3385
aa(lp3386
I252
aS'24'
p3387
aa(lp3388
I252
aS'25'
p3389
aa(lp3390
I252
aS'26'
p3391
aa(lp3392
I252
aS'27'
p3393
aa(lp3394
I252
aS'28'
p3395
aa(lp3396
I253
aS'29'
p3397
aa(lp3398
I253
aS'30'
p3399
aa(lp3400
I253
aS'31'
p3401
aa(lp3402
I253
aS'32'
p3403
aa(lp3404
I253
aS'33'
p3405
aa(lp3406
I253
aS'34'
p3407
aa(lp3408
I254
aS'35'
p3409
aa(lp3410
I254
aS'36'
p3411
aa(lp3412
I254
aS'37'
p3413
aa(lp3414
I254
aS'38'
p3415
aa(lp3416
I254
aS'39'
p3417
aa(lp3418
I254
aS'40'
p3419
aa(lp3420
I254
aS'41'
p3421
aa(lp3422
I254
aS'42'
p3423
aa(lp3424
I255
aS'43'
p3425
aaa(lp3426
(lp3427
I255
aV\u0625\u0628\u0631\u0627\u0647\u064a\u0645
p3428
aa(lp3429
I255
aS'1'
aa(lp3430
I255
aS'2'
aa(lp3431
I255
aS'3'
aa(lp3432
I255
aS'4'
aa(lp3433
I255
aS'5'
aa(lp3434
I256
aS'6'
aa(lp3435
I256
aS'7'
aa(lp3436
I256
aS'8'
aa(lp3437
I256
aS'9'
aa(lp3438
I256
aS'10'
p3439
aa(lp3440
I257
aS'11'
p3441
aa(lp3442
I257
aS'12'
p3443
aa(lp3444
I257
aS'13'
p3445
aa(lp3446
I257
aS'14'
p3447
aa(lp3448
I257
aS'15'
p3449
aa(lp3450
I257
aS'16'
p3451
aa(lp3452
I257
aS'17'
p3453
aa(lp3454
I257
aS'18'
p3455
aa(lp3456
I258
aS'19'
p3457
aa(lp3458
I258
aS'20'
p3459
aa(lp3460
I258
aS'21'
p3461
aa(lp3462
I258
aS'22'
p3463
aa(lp3464
I258
aS'23'
p3465
aa(lp3466
I258
aS'24'
p3467
aa(lp3468
I259
aS'25'
p3469
aa(lp3470
I259
aS'26'
p3471
aa(lp3472
I259
aS'27'
p3473
aa(lp3474
I259
aS'28'
p3475
aa(lp3476
I259
aS'29'
p3477
aa(lp3478
I259
aS'30'
p3479
aa(lp3480
I259
aS'31'
p3481
aa(lp3482
I259
aS'32'
p3483
aa(lp3484
I259
aS'33'
p3485
aa(lp3486
I260
aS'34'
p3487
aa(lp3488
I260
aS'35'
p3489
aa(lp3490
I260
aS'36'
p3491
aa(lp3492
I260
aS'37'
p3493
aa(lp3494
I260
aS'38'
p3495
aa(lp3496
I260
aS'39'
p3497
aa(lp3498
I260
aS'40'
p3499
aa(lp3500
I260
aS'41'
p3501
aa(lp3502
I260
aS'42'
p3503
aa(lp3504
I261
aS'43'
p3505
aa(lp3506
I261
aS'44'
p3507
aa(lp3508
I261
aS'45'
p3509
aa(lp3510
I261
aS'46'
p3511
aa(lp3512
I261
aS'47'
p3513
aa(lp3514
I261
aS'48'
p3515
aa(lp3516
I261
aS'49'
p3517
aa(lp3518
I261
aS'50'
p3519
aa(lp3520
I261
aS'51'
p3521
aa(lp3522
I261
aS'52'
p3523
aaa(lp3524
(lp3525
I262
aV\u0627\u0644\u062d\u062c\u0631
p3526
aa(lp3527
I262
aS'1'
aa(lp3528
I262
aS'2'
aa(lp3529
I262
aS'3'
aa(lp3530
I262
aS'4'
aa(lp3531
I262
aS'5'
aa(lp3532
I262
aS'6'
aa(lp3533
I262
aS'7'
aa(lp3534
I262
aS'8'
aa(lp3535
I262
aS'9'
aa(lp3536
I262
aS'10'
p3537
aa(lp3538
I262
aS'11'
p3539
aa(lp3540
I262
aS'12'
p3541
aa(lp3542
I262
aS'13'
p3543
aa(lp3544
I262
aS'14'
p3545
aa(lp3546
I262
aS'15'
p3547
aa(lp3548
I263
aS'16'
p3549
aa(lp3550
I263
aS'17'
p3551
aa(lp3552
I263
aS'18'
p3553
aa(lp3554
I263
aS'19'
p3555
aa(lp3556
I263
aS'20'
p3557
aa(lp3558
I263
aS'21'
p3559
aa(lp3560
I263
aS'22'
p3561
aa(lp3562
I263
aS'23'
p3563
aa(lp3564
I263
aS'24'
p3565
aa(lp3566
I263
aS'25'
p3567
aa(lp3568
I263
aS'26'
p3569
aa(lp3570
I263
aS'27'
p3571
aa(lp3572
I263
aS'28'
p3573
aa(lp3574
I263
aS'29'
p3575
aa(lp3576
I263
aS'30'
p3577
aa(lp3578
I263
aS'31'
p3579
aa(lp3580
I264
aS'32'
p3581
aa(lp3582
I264
aS'33'
p3583
aa(lp3584
I264
aS'34'
p3585
aa(lp3586
I264
aS'35'
p3587
aa(lp3588
I264
aS'36'
p3589
aa(lp3590
I264
aS'37'
p3591
aa(lp3592
I264
aS'38'
p3593
aa(lp3594
I264
aS'39'
p3595
aa(lp3596
I264
aS'40'
p3597
aa(lp3598
I264
aS'41'
p3599
aa(lp3600
I264
aS'42'
p3601
aa(lp3602
I264
aS'43'
p3603
aa(lp3604
I264
aS'44'
p3605
aa(lp3606
I264
aS'45'
p3607
aa(lp3608
I264
aS'46'
p3609
aa(lp3610
I264
aS'47'
p3611
aa(lp3612
I264
aS'48'
p3613
aa(lp3614
I264
aS'49'
p3615
aa(lp3616
I264
aS'50'
p3617
aa(lp3618
I264
aS'51'
p3619
aa(lp3620
I265
aS'52'
p3621
aa(lp3622
I265
aS'53'
p3623
aa(lp3624
I265
aS'54'
p3625
aa(lp3626
I265
aS'55'
p3627
aa(lp3628
I265
aS'56'
p3629
aa(lp3630
I265
aS'57'
p3631
aa(lp3632
I265
aS'58'
p3633
aa(lp3634
I265
aS'59'
p3635
aa(lp3636
I265
aS'60'
p3637
aa(lp3638
I265
aS'61'
p3639
aa(lp3640
I265
aS'62'
p3641
aa(lp3642
I265
aS'63'
p3643
aa(lp3644
I265
aS'64'
p3645
aa(lp3646
I265
aS'65'
p3647
aa(lp3648
I265
aS'66'
p3649
aa(lp3650
I265
aS'67'
p3651
aa(lp3652
I265
aS'68'
p3653
aa(lp3654
I265
aS'69'
p3655
aa(lp3656
I265
aS'70'
p3657
aa(lp3658
I266
aS'71'
p3659
aa(lp3660
I266
aS'72'
p3661
aa(lp3662
I266
aS'73'
p3663
aa(lp3664
I266
aS'74'
p3665
aa(lp3666
I266
aS'75'
p3667
aa(lp3668
I266
aS'76'
p3669
aa(lp3670
I266
aS'77'
p3671
aa(lp3672
I266
aS'78'
p3673
aa(lp3674
I266
aS'79'
p3675
aa(lp3676
I266
aS'80'
p3677
aa(lp3678
I266
aS'81'
p3679
aa(lp3680
I266
aS'82'
p3681
aa(lp3682
I266
aS'83'
p3683
aa(lp3684
I266
aS'84'
p3685
aa(lp3686
I266
aS'85'
p3687
aa(lp3688
I266
aS'86'
p3689
aa(lp3690
I266
aS'87'
p3691
aa(lp3692
I266
aS'88'
p3693
aa(lp3694
I266
aS'89'
p3695
aa(lp3696
I266
aS'90'
p3697
aa(lp3698
I267
aS'91'
p3699
aa(lp3700
I267
aS'92'
p3701
aa(lp3702
I267
aS'93'
p3703
aa(lp3704
I267
aS'94'
p3705
aa(lp3706
I267
aS'95'
p3707
aa(lp3708
I267
aS'96'
p3709
aa(lp3710
I267
aS'97'
p3711
aa(lp3712
I267
aS'98'
p3713
aa(lp3714
I267
aS'99'
p3715
aaa(lp3716
(lp3717
I267
aV\u0627\u0644\u0646\u062d\u0644
p3718
aa(lp3719
I267
aS'1'
aa(lp3720
I267
aS'2'
aa(lp3721
I267
aS'3'
aa(lp3722
I267
aS'4'
aa(lp3723
I267
aS'5'
aa(lp3724
I267
aS'6'
aa(lp3725
I268
aS'7'
aa(lp3726
I268
aS'8'
aa(lp3727
I268
aS'9'
aa(lp3728
I268
aS'10'
p3729
aa(lp3730
I268
aS'11'
p3731
aa(lp3732
I268
aS'12'
p3733
aa(lp3734
I268
aS'13'
p3735
aa(lp3736
I268
aS'14'
p3737
aa(lp3738
I269
aS'15'
p3739
aa(lp3740
I269
aS'16'
p3741
aa(lp3742
I269
aS'17'
p3743
aa(lp3744
I269
aS'18'
p3745
aa(lp3746
I269
aS'19'
p3747
aa(lp3748
I269
aS'20'
p3749
aa(lp3750
I269
aS'21'
p3751
aa(lp3752
I269
aS'22'
p3753
aa(lp3754
I269
aS'23'
p3755
aa(lp3756
I269
aS'24'
p3757
aa(lp3758
I269
aS'25'
p3759
aa(lp3760
I269
aS'26'
p3761
aa(lp3762
I270
aS'27'
p3763
aa(lp3764
I270
aS'28'
p3765
aa(lp3766
I270
aS'29'
p3767
aa(lp3768
I270
aS'30'
p3769
aa(lp3770
I270
aS'31'
p3771
aa(lp3772
I270
aS'32'
p3773
aa(lp3774
I270
aS'33'
p3775
aa(lp3776
I270
aS'34'
p3777
aa(lp3778
I271
aS'35'
p3779
aa(lp3780
I271
aS'36'
p3781
aa(lp3782
I271
aS'37'
p3783
aa(lp3784
I271
aS'38'
p3785
aa(lp3786
I271
aS'39'
p3787
aa(lp3788
I271
aS'40'
p3789
aa(lp3790
I271
aS'41'
p3791
aa(lp3792
I271
aS'42'
p3793
aa(lp3794
I272
aS'43'
p3795
aa(lp3796
I272
aS'44'
p3797
aa(lp3798
I272
aS'45'
p3799
aa(lp3800
I272
aS'46'
p3801
aa(lp3802
I272
aS'47'
p3803
aa(lp3804
I272
aS'48'
p3805
aa(lp3806
I272
aS'49'
p3807
aa(lp3808
I272
aS'50'
p3809
aa(lp3810
I272
aS'51'
p3811
aa(lp3812
I272
aS'52'
p3813
aa(lp3814
I272
aS'53'
p3815
aa(lp3816
I272
aS'54'
p3817
aa(lp3818
I273
aS'55'
p3819
aa(lp3820
I273
aS'56'
p3821
aa(lp3822
I273
aS'57'
p3823
aa(lp3824
I273
aS'58'
p3825
aa(lp3826
I273
aS'59'
p3827
aa(lp3828
I273
aS'60'
p3829
aa(lp3830
I273
aS'61'
p3831
aa(lp3832
I273
aS'62'
p3833
aa(lp3834
I273
aS'63'
p3835
aa(lp3836
I273
aS'64'
p3837
aa(lp3838
I274
aS'65'
p3839
aa(lp3840
I274
aS'66'
p3841
aa(lp3842
I274
aS'67'
p3843
aa(lp3844
I274
aS'68'
p3845
aa(lp3846
I274
aS'69'
p3847
aa(lp3848
I274
aS'70'
p3849
aa(lp3850
I274
aS'71'
p3851
aa(lp3852
I274
aS'72'
p3853
aa(lp3854
I275
aS'73'
p3855
aa(lp3856
I275
aS'74'
p3857
aa(lp3858
I275
aS'75'
p3859
aa(lp3860
I275
aS'76'
p3861
aa(lp3862
I275
aS'77'
p3863
aa(lp3864
I275
aS'78'
p3865
aa(lp3866
I275
aS'79'
p3867
aa(lp3868
I276
aS'80'
p3869
aa(lp3870
I276
aS'81'
p3871
aa(lp3872
I276
aS'82'
p3873
aa(lp3874
I276
aS'83'
p3875
aa(lp3876
I276
aS'84'
p3877
aa(lp3878
I276
aS'85'
p3879
aa(lp3880
I276
aS'86'
p3881
aa(lp3882
I276
aS'87'
p3883
aa(lp3884
I277
aS'88'
p3885
aa(lp3886
I277
aS'89'
p3887
aa(lp3888
I277
aS'90'
p3889
aa(lp3890
I277
aS'91'
p3891
aa(lp3892
I277
aS'92'
p3893
aa(lp3894
I277
aS'93'
p3895
aa(lp3896
I278
aS'94'
p3897
aa(lp3898
I278
aS'95'
p3899
aa(lp3900
I278
aS'96'
p3901
aa(lp3902
I278
aS'97'
p3903
aa(lp3904
I278
aS'98'
p3905
aa(lp3906
I278
aS'99'
p3907
aa(lp3908
I278
aS'100'
p3909
aa(lp3910
I278
aS'101'
p3911
aa(lp3912
I278
aS'102'
p3913
aa(lp3914
I279
aS'103'
p3915
aa(lp3916
I279
aS'104'
p3917
aa(lp3918
I279
aS'105'
p3919
aa(lp3920
I279
aS'106'
p3921
aa(lp3922
I279
aS'107'
p3923
aa(lp3924
I279
aS'108'
p3925
aa(lp3926
I279
aS'109'
p3927
aa(lp3928
I279
aS'110'
p3929
aa(lp3930
I280
aS'111'
p3931
aa(lp3932
I280
aS'112'
p3933
aa(lp3934
I280
aS'113'
p3935
aa(lp3936
I280
aS'114'
p3937
aa(lp3938
I280
aS'115'
p3939
aa(lp3940
I280
aS'116'
p3941
aa(lp3942
I280
aS'117'
p3943
aa(lp3944
I280
aS'118'
p3945
aa(lp3946
I281
aS'119'
p3947
aa(lp3948
I281
aS'120'
p3949
aa(lp3950
I281
aS'121'
p3951
aa(lp3952
I281
aS'122'
p3953
aa(lp3954
I281
aS'123'
p3955
aa(lp3956
I281
aS'124'
p3957
aa(lp3958
I281
aS'125'
p3959
aa(lp3960
I281
aS'126'
p3961
aa(lp3962
I281
aS'127'
p3963
aa(lp3964
I281
aS'128'
p3965
aaa(lp3966
(lp3967
I282
aV\u0627\u0644\u0625\u0633\u0631\u0627\u0621
p3968
aa(lp3969
I282
aS'1'
aa(lp3970
I282
aS'2'
aa(lp3971
I282
aS'3'
aa(lp3972
I282
aS'4'
aa(lp3973
I282
aS'5'
aa(lp3974
I282
aS'6'
aa(lp3975
I282
aS'7'
aa(lp3976
I283
aS'8'
aa(lp3977
I283
aS'9'
aa(lp3978
I283
aS'10'
p3979
aa(lp3980
I283
aS'11'
p3981
aa(lp3982
I283
aS'12'
p3983
aa(lp3984
I283
aS'13'
p3985
aa(lp3986
I283
aS'14'
p3987
aa(lp3988
I283
aS'15'
p3989
aa(lp3990
I283
aS'16'
p3991
aa(lp3992
I283
aS'17'
p3993
aa(lp3994
I284
aS'18'
p3995
aa(lp3996
I284
aS'19'
p3997
aa(lp3998
I284
aS'20'
p3999
aa(lp4000
I284
aS'21'
p4001
aa(lp4002
I284
aS'22'
p4003
aa(lp4004
I284
aS'23'
p4005
aa(lp4006
I284
aS'24'
p4007
aa(lp4008
I284
aS'25'
p4009
aa(lp4010
I284
aS'26'
p4011
aa(lp4012
I284
aS'27'
p4013
aa(lp4014
I285
aS'28'
p4015
aa(lp4016
I285
aS'29'
p4017
aa(lp4018
I285
aS'30'
p4019
aa(lp4020
I285
aS'31'
p4021
aa(lp4022
I285
aS'32'
p4023
aa(lp4024
I285
aS'33'
p4025
aa(lp4026
I285
aS'34'
p4027
aa(lp4028
I285
aS'35'
p4029
aa(lp4030
I285
aS'36'
p4031
aa(lp4032
I285
aS'37'
p4033
aa(lp4034
I285
aS'38'
p4035
aa(lp4036
I286
aS'39'
p4037
aa(lp4038
I286
aS'40'
p4039
aa(lp4040
I286
aS'41'
p4041
aa(lp4042
I286
aS'42'
p4043
aa(lp4044
I286
aS'43'
p4045
aa(lp4046
I286
aS'44'
p4047
aa(lp4048
I286
aS'45'
p4049
aa(lp4050
I286
aS'46'
p4051
aa(lp4052
I286
aS'47'
p4053
aa(lp4054
I286
aS'48'
p4055
aa(lp4056
I286
aS'49'
p4057
aa(lp4058
I287
aS'50'
p4059
aa(lp4060
I287
aS'51'
p4061
aa(lp4062
I287
aS'52'
p4063
aa(lp4064
I287
aS'53'
p4065
aa(lp4066
I287
aS'54'
p4067
aa(lp4068
I287
aS'55'
p4069
aa(lp4070
I287
aS'56'
p4071
aa(lp4072
I287
aS'57'
p4073
aa(lp4074
I287
aS'58'
p4075
aa(lp4076
I288
aS'59'
p4077
aa(lp4078
I288
aS'60'
p4079
aa(lp4080
I288
aS'61'
p4081
aa(lp4082
I288
aS'62'
p4083
aa(lp4084
I288
aS'63'
p4085
aa(lp4086
I288
aS'64'
p4087
aa(lp4088
I288
aS'65'
p4089
aa(lp4090
I288
aS'66'
p4091
aa(lp4092
I289
aS'67'
p4093
aa(lp4094
I289
aS'68'
p4095
aa(lp4096
I289
aS'69'
p4097
aa(lp4098
I289
aS'70'
p4099
aa(lp4100
I289
aS'71'
p4101
aa(lp4102
I289
aS'72'
p4103
aa(lp4104
I289
aS'73'
p4105
aa(lp4106
I289
aS'74'
p4107
aa(lp4108
I289
aS'75'
p4109
aa(lp4110
I290
aS'76'
p4111
aa(lp4112
I290
aS'77'
p4113
aa(lp4114
I290
aS'78'
p4115
aa(lp4116
I290
aS'79'
p4117
aa(lp4118
I290
aS'80'
p4119
aa(lp4120
I290
aS'81'
p4121
aa(lp4122
I290
aS'82'
p4123
aa(lp4124
I290
aS'83'
p4125
aa(lp4126
I290
aS'84'
p4127
aa(lp4128
I290
aS'85'
p4129
aa(lp4130
I290
aS'86'
p4131
aa(lp4132
I291
aS'87'
p4133
aa(lp4134
I291
aS'88'
p4135
aa(lp4136
I291
aS'89'
p4137
aa(lp4138
I291
aS'90'
p4139
aa(lp4140
I291
aS'91'
p4141
aa(lp4142
I291
aS'92'
p4143
aa(lp4144
I291
aS'93'
p4145
aa(lp4146
I291
aS'94'
p4147
aa(lp4148
I291
aS'95'
p4149
aa(lp4150
I291
aS'96'
p4151
aa(lp4152
I292
aS'97'
p4153
aa(lp4154
I292
aS'98'
p4155
aa(lp4156
I292
aS'99'
p4157
aa(lp4158
I292
aS'100'
p4159
aa(lp4160
I292
aS'101'
p4161
aa(lp4162
I292
aS'102'
p4163
aa(lp4164
I292
aS'103'
p4165
aa(lp4166
I292
aS'104'
p4167
aa(lp4168
I293
aS'105'
p4169
aa(lp4170
I293
aS'106'
p4171
aa(lp4172
I293
aS'107'
p4173
aa(lp4174
I293
aS'108'
p4175
aa(lp4176
I293
aS'109'
p4177
aa(lp4178
I293
aS'110'
p4179
aa(lp4180
I293
aS'111'
p4181
aaa(lp4182
(lp4183
I293
aV\u0627\u0644\u0643\u0647\u0641
p4184
aa(lp4185
I293
aS'1'
aa(lp4186
I293
aS'2'
aa(lp4187
I293
aS'3'
aa(lp4188
I293
aS'4'
aa(lp4189
I294
aS'5'
aa(lp4190
I294
aS'6'
aa(lp4191
I294
aS'7'
aa(lp4192
I294
aS'8'
aa(lp4193
I294
aS'9'
aa(lp4194
I294
aS'10'
p4195
aa(lp4196
I294
aS'11'
p4197
aa(lp4198
I294
aS'12'
p4199
aa(lp4200
I294
aS'13'
p4201
aa(lp4202
I294
aS'14'
p4203
aa(lp4204
I294
aS'15'
p4205
aa(lp4206
I295
aS'16'
p4207
aa(lp4208
I295
aS'17'
p4209
aa(lp4210
I295
aS'18'
p4211
aa(lp4212
I295
aS'19'
p4213
aa(lp4214
I295
aS'20'
p4215
aa(lp4216
I296
aS'21'
p4217
aa(lp4218
I296
aS'22'
p4219
aa(lp4220
I296
aS'23'
p4221
aa(lp4222
I296
aS'24'
p4223
aa(lp4224
I296
aS'25'
p4225
aa(lp4226
I296
aS'26'
p4227
aa(lp4228
I296
aS'27'
p4229
aa(lp4230
I297
aS'28'
p4231
aa(lp4232
I297
aS'29'
p4233
aa(lp4234
I297
aS'30'
p4235
aa(lp4236
I297
aS'31'
p4237
aa(lp4238
I297
aS'32'
p4239
aa(lp4240
I297
aS'33'
p4241
aa(lp4242
I297
aS'34'
p4243
aa(lp4244
I298
aS'35'
p4245
aa(lp4246
I298
aS'36'
p4247
aa(lp4248
I298
aS'37'
p4249
aa(lp4250
I298
aS'38'
p4251
aa(lp4252
I298
aS'39'
p4253
aa(lp4254
I298
aS'40'
p4255
aa(lp4256
I298
aS'41'
p4257
aa(lp4258
I298
aS'42'
p4259
aa(lp4260
I298
aS'43'
p4261
aa(lp4262
I298
aS'44'
p4263
aa(lp4264
I298
aS'45'
p4265
aa(lp4266
I299
aS'46'
p4267
aa(lp4268
I299
aS'47'
p4269
aa(lp4270
I299
aS'48'
p4271
aa(lp4272
I299
aS'49'
p4273
aa(lp4274
I299
aS'50'
p4275
aa(lp4276
I299
aS'51'
p4277
aa(lp4278
I299
aS'52'
p4279
aa(lp4280
I299
aS'53'
p4281
aa(lp4282
I300
aS'54'
p4283
aa(lp4284
I300
aS'55'
p4285
aa(lp4286
I300
aS'56'
p4287
aa(lp4288
I300
aS'57'
p4289
aa(lp4290
I300
aS'58'
p4291
aa(lp4292
I300
aS'59'
p4293
aa(lp4294
I300
aS'60'
p4295
aa(lp4296
I300
aS'61'
p4297
aa(lp4298
I301
aS'62'
p4299
aa(lp4300
I301
aS'63'
p4301
aa(lp4302
I301
aS'64'
p4303
aa(lp4304
I301
aS'65'
p4305
aa(lp4306
I301
aS'66'
p4307
aa(lp4308
I301
aS'67'
p4309
aa(lp4310
I301
aS'68'
p4311
aa(lp4312
I301
aS'69'
p4313
aa(lp4314
I301
aS'70'
p4315
aa(lp4316
I301
aS'71'
p4317
aa(lp4318
I301
aS'72'
p4319
aa(lp4320
I301
aS'73'
p4321
aa(lp4322
I301
aS'74'
p4323
aa(lp4324
I302
aS'75'
p4325
aa(lp4326
I302
aS'76'
p4327
aa(lp4328
I302
aS'77'
p4329
aa(lp4330
I302
aS'78'
p4331
aa(lp4332
I302
aS'79'
p4333
aa(lp4334
I302
aS'80'
p4335
aa(lp4336
I302
aS'81'
p4337
aa(lp4338
I302
aS'82'
p4339
aa(lp4340
I302
aS'83'
p4341
aa(lp4342
I303
aS'84'
p4343
aa(lp4344
I303
aS'85'
p4345
aa(lp4346
I303
aS'86'
p4347
aa(lp4348
I303
aS'87'
p4349
aa(lp4350
I303
aS'88'
p4351
aa(lp4352
I303
aS'89'
p4353
aa(lp4354
I303
aS'90'
p4355
aa(lp4356
I303
aS'91'
p4357
aa(lp4358
I303
aS'92'
p4359
aa(lp4360
I303
aS'93'
p4361
aa(lp4362
I303
aS'94'
p4363
aa(lp4364
I303
aS'95'
p4365
aa(lp4366
I303
aS'96'
p4367
aa(lp4368
I303
aS'97'
p4369
aa(lp4370
I304
aS'98'
p4371
aa(lp4372
I304
aS'99'
p4373
aa(lp4374
I304
aS'100'
p4375
aa(lp4376
I304
aS'101'
p4377
aa(lp4378
I304
aS'102'
p4379
aa(lp4380
I304
aS'103'
p4381
aa(lp4382
I304
aS'104'
p4383
aa(lp4384
I304
aS'105'
p4385
aa(lp4386
I304
aS'106'
p4387
aa(lp4388
I304
aS'107'
p4389
aa(lp4390
I304
aS'108'
p4391
aa(lp4392
I304
aS'109'
p4393
aa(lp4394
I304
aS'110'
p4395
aaa(lp4396
(lp4397
I305
aV\u0645\u0631\u064a\u0645
p4398
aa(lp4399
I305
aS'1'
aa(lp4400
I305
aS'2'
aa(lp4401
I305
aS'3'
aa(lp4402
I305
aS'4'
aa(lp4403
I305
aS'5'
aa(lp4404
I305
aS'6'
aa(lp4405
I305
aS'7'
aa(lp4406
I305
aS'8'
aa(lp4407
I305
aS'9'
aa(lp4408
I305
aS'10'
p4409
aa(lp4410
I305
aS'11'
p4411
aa(lp4412
I306
aS'12'
p4413
aa(lp4414
I306
aS'13'
p4415
aa(lp4416
I306
aS'14'
p4417
aa(lp4418
I306
aS'15'
p4419
aa(lp4420
I306
aS'16'
p4421
aa(lp4422
I306
aS'17'
p4423
aa(lp4424
I306
aS'18'
p4425
aa(lp4426
I306
aS'19'
p4427
aa(lp4428
I306
aS'20'
p4429
aa(lp4430
I306
aS'21'
p4431
aa(lp4432
I306
aS'22'
p4433
aa(lp4434
I306
aS'23'
p4435
aa(lp4436
I306
aS'24'
p4437
aa(lp4438
I306
aS'25'
p4439
aa(lp4440
I307
aS'26'
p4441
aa(lp4442
I307
aS'27'
p4443
aa(lp4444
I307
aS'28'
p4445
aa(lp4446
I307
aS'29'
p4447
aa(lp4448
I307
aS'30'
p4449
aa(lp4450
I307
aS'31'
p4451
aa(lp4452
I307
aS'32'
p4453
aa(lp4454
I307
aS'33'
p4455
aa(lp4456
I307
aS'34'
p4457
aa(lp4458
I307
aS'35'
p4459
aa(lp4460
I307
aS'36'
p4461
aa(lp4462
I307
aS'37'
p4463
aa(lp4464
I307
aS'38'
p4465
aa(lp4466
I308
aS'39'
p4467
aa(lp4468
I308
aS'40'
p4469
aa(lp4470
I308
aS'41'
p4471
aa(lp4472
I308
aS'42'
p4473
aa(lp4474
I308
aS'43'
p4475
aa(lp4476
I308
aS'44'
p4477
aa(lp4478
I308
aS'45'
p4479
aa(lp4480
I308
aS'46'
p4481
aa(lp4482
I308
aS'47'
p4483
aa(lp4484
I308
aS'48'
p4485
aa(lp4486
I308
aS'49'
p4487
aa(lp4488
I308
aS'50'
p4489
aa(lp4490
I308
aS'51'
p4491
aa(lp4492
I309
aS'52'
p4493
aa(lp4494
I309
aS'53'
p4495
aa(lp4496
I309
aS'54'
p4497
aa(lp4498
I309
aS'55'
p4499
aa(lp4500
I309
aS'56'
p4501
aa(lp4502
I309
aS'57'
p4503
aa(lp4504
I309
aS'58'
p4505
aa(lp4506
I309
aS'59'
p4507
aa(lp4508
I309
aS'60'
p4509
aa(lp4510
I309
aS'61'
p4511
aa(lp4512
I309
aS'62'
p4513
aa(lp4514
I309
aS'63'
p4515
aa(lp4516
I309
aS'64'
p4517
aa(lp4518
I310
aS'65'
p4519
aa(lp4520
I310
aS'66'
p4521
aa(lp4522
I310
aS'67'
p4523
aa(lp4524
I310
aS'68'
p4525
aa(lp4526
I310
aS'69'
p4527
aa(lp4528
I310
aS'70'
p4529
aa(lp4530
I310
aS'71'
p4531
aa(lp4532
I310
aS'72'
p4533
aa(lp4534
I310
aS'73'
p4535
aa(lp4536
I310
aS'74'
p4537
aa(lp4538
I310
aS'75'
p4539
aa(lp4540
I310
aS'76'
p4541
aa(lp4542
I311
aS'77'
p4543
aa(lp4544
I311
aS'78'
p4545
aa(lp4546
I311
aS'79'
p4547
aa(lp4548
I311
aS'80'
p4549
aa(lp4550
I311
aS'81'
p4551
aa(lp4552
I311
aS'82'
p4553
aa(lp4554
I311
aS'83'
p4555
aa(lp4556
I311
aS'84'
p4557
aa(lp4558
I311
aS'85'
p4559
aa(lp4560
I311
aS'86'
p4561
aa(lp4562
I311
aS'87'
p4563
aa(lp4564
I311
aS'88'
p4565
aa(lp4566
I311
aS'89'
p4567
aa(lp4568
I311
aS'90'
p4569
aa(lp4570
I311
aS'91'
p4571
aa(lp4572
I311
aS'92'
p4573
aa(lp4574
I311
aS'93'
p4575
aa(lp4576
I311
aS'94'
p4577
aa(lp4578
I311
aS'95'
p4579
aa(lp4580
I312
aS'96'
p4581
aa(lp4582
I312
aS'97'
p4583
aa(lp4584
I312
aS'98'
p4585
aaa(lp4586
(lp4587
I312
aV\u0637\u0647
p4588
aa(lp4589
I312
aS'1'
aa(lp4590
I312
aS'2'
aa(lp4591
I312
aS'3'
aa(lp4592
I312
aS'4'
aa(lp4593
I312
aS'5'
aa(lp4594
I312
aS'6'
aa(lp4595
I312
aS'7'
aa(lp4596
I312
aS'8'
aa(lp4597
I312
aS'9'
aa(lp4598
I312
aS'10'
p4599
aa(lp4600
I312
aS'11'
p4601
aa(lp4602
I312
aS'12'
p4603
aa(lp4604
I313
aS'13'
p4605
aa(lp4606
I313
aS'14'
p4607
aa(lp4608
I313
aS'15'
p4609
aa(lp4610
I313
aS'16'
p4611
aa(lp4612
I313
aS'17'
p4613
aa(lp4614
I313
aS'18'
p4615
aa(lp4616
I313
aS'19'
p4617
aa(lp4618
I313
aS'20'
p4619
aa(lp4620
I313
aS'21'
p4621
aa(lp4622
I313
aS'22'
p4623
aa(lp4624
I313
aS'23'
p4625
aa(lp4626
I313
aS'24'
p4627
aa(lp4628
I313
aS'25'
p4629
aa(lp4630
I313
aS'26'
p4631
aa(lp4632
I313
aS'27'
p4633
aa(lp4634
I313
aS'28'
p4635
aa(lp4636
I313
aS'29'
p4637
aa(lp4638
I313
aS'30'
p4639
aa(lp4640
I313
aS'31'
p4641
aa(lp4642
I313
aS'32'
p4643
aa(lp4644
I313
aS'33'
p4645
aa(lp4646
I313
aS'34'
p4647
aa(lp4648
I313
aS'35'
p4649
aa(lp4650
I313
aS'36'
p4651
aa(lp4652
I313
aS'37'
p4653
aa(lp4654
I314
aS'38'
p4655
aa(lp4656
I314
aS'39'
p4657
aa(lp4658
I314
aS'40'
p4659
aa(lp4660
I314
aS'41'
p4661
aa(lp4662
I314
aS'42'
p4663
aa(lp4664
I314
aS'43'
p4665
aa(lp4666
I314
aS'44'
p4667
aa(lp4668
I314
aS'45'
p4669
aa(lp4670
I314
aS'46'
p4671
aa(lp4672
I314
aS'47'
p4673
aa(lp4674
I314
aS'48'
p4675
aa(lp4676
I314
aS'49'
p4677
aa(lp4678
I314
aS'50'
p4679
aa(lp4680
I314
aS'51'
p4681
aa(lp4682
I315
aS'52'
p4683
aa(lp4684
I315
aS'53'
p4685
aa(lp4686
I315
aS'54'
p4687
aa(lp4688
I315
aS'55'
p4689
aa(lp4690
I315
aS'56'
p4691
aa(lp4692
I315
aS'57'
p4693
aa(lp4694
I315
aS'58'
p4695
aa(lp4696
I315
aS'59'
p4697
aa(lp4698
I315
aS'60'
p4699
aa(lp4700
I315
aS'61'
p4701
aa(lp4702
I315
aS'62'
p4703
aa(lp4704
I315
aS'63'
p4705
aa(lp4706
I315
aS'64'
p4707
aa(lp4708
I316
aS'65'
p4709
aa(lp4710
I316
aS'66'
p4711
aa(lp4712
I316
aS'67'
p4713
aa(lp4714
I316
aS'68'
p4715
aa(lp4716
I316
aS'69'
p4717
aa(lp4718
I316
aS'70'
p4719
aa(lp4720
I316
aS'71'
p4721
aa(lp4722
I316
aS'72'
p4723
aa(lp4724
I316
aS'73'
p4725
aa(lp4726
I316
aS'74'
p4727
aa(lp4728
I316
aS'75'
p4729
aa(lp4730
I316
aS'76'
p4731
aa(lp4732
I317
aS'77'
p4733
aa(lp4734
I317
aS'78'
p4735
aa(lp4736
I317
aS'79'
p4737
aa(lp4738
I317
aS'80'
p4739
aa(lp4740
I317
aS'81'
p4741
aa(lp4742
I317
aS'82'
p4743
aa(lp4744
I317
aS'83'
p4745
aa(lp4746
I317
aS'84'
p4747
aa(lp4748
I317
aS'85'
p4749
aa(lp4750
I317
aS'86'
p4751
aa(lp4752
I317
aS'87'
p4753
aa(lp4754
I318
aS'88'
p4755
aa(lp4756
I318
aS'89'
p4757
aa(lp4758
I318
aS'90'
p4759
aa(lp4760
I318
aS'91'
p4761
aa(lp4762
I318
aS'92'
p4763
aa(lp4764
I318
aS'93'
p4765
aa(lp4766
I318
aS'94'
p4767
aa(lp4768
I318
aS'95'
p4769
aa(lp4770
I318
aS'96'
p4771
aa(lp4772
I318
aS'97'
p4773
aa(lp4774
I318
aS'98'
p4775
aa(lp4776
I319
aS'99'
p4777
aa(lp4778
I319
aS'100'
p4779
aa(lp4780
I319
aS'101'
p4781
aa(lp4782
I319
aS'102'
p4783
aa(lp4784
I319
aS'103'
p4785
aa(lp4786
I319
aS'104'
p4787
aa(lp4788
I319
aS'105'
p4789
aa(lp4790
I319
aS'106'
p4791
aa(lp4792
I319
aS'107'
p4793
aa(lp4794
I319
aS'108'
p4795
aa(lp4796
I319
aS'109'
p4797
aa(lp4798
I319
aS'110'
p4799
aa(lp4800
I319
aS'111'
p4801
aa(lp4802
I319
aS'112'
p4803
aa(lp4804
I319
aS'113'
p4805
aa(lp4806
I320
aS'114'
p4807
aa(lp4808
I320
aS'115'
p4809
aa(lp4810
I320
aS'116'
p4811
aa(lp4812
I320
aS'117'
p4813
aa(lp4814
I320
aS'118'
p4815
aa(lp4816
I320
aS'119'
p4817
aa(lp4818
I320
aS'120'
p4819
aa(lp4820
I320
aS'121'
p4821
aa(lp4822
I320
aS'122'
p4823
aa(lp4824
I320
aS'123'
p4825
aa(lp4826
I320
aS'124'
p4827
aa(lp4828
I320
aS'125'
p4829
aa(lp4830
I321
aS'126'
p4831
aa(lp4832
I321
aS'127'
p4833
aa(lp4834
I321
aS'128'
p4835
aa(lp4836
I321
aS'129'
p4837
aa(lp4838
I321
aS'130'
p4839
aa(lp4840
I321
aS'131'
p4841
aa(lp4842
I321
aS'132'
p4843
aa(lp4844
I321
aS'133'
p4845
aa(lp4846
I321
aS'134'
p4847
aa(lp4848
I321
aS'135'
p4849
aaa(lp4850
(lp4851
I322
aV\u0627\u0644\u0623\u0646\u0628\u064a\u0627\u0621
p4852
aa(lp4853
I322
aS'1'
aa(lp4854
I322
aS'2'
aa(lp4855
I322
aS'3'
aa(lp4856
I322
aS'4'
aa(lp4857
I322
aS'5'
aa(lp4858
I322
aS'6'
aa(lp4859
I322
aS'7'
aa(lp4860
I322
aS'8'
aa(lp4861
I322
aS'9'
aa(lp4862
I322
aS'10'
p4863
aa(lp4864
I323
aS'11'
p4865
aa(lp4866
I323
aS'12'
p4867
aa(lp4868
I323
aS'13'
p4869
aa(lp4870
I323
aS'14'
p4871
aa(lp4872
I323
aS'15'
p4873
aa(lp4874
I323
aS'16'
p4875
aa(lp4876
I323
aS'17'
p4877
aa(lp4878
I323
aS'18'
p4879
aa(lp4880
I323
aS'19'
p4881
aa(lp4882
I323
aS'20'
p4883
aa(lp4884
I323
aS'21'
p4885
aa(lp4886
I323
aS'22'
p4887
aa(lp4888
I323
aS'23'
p4889
aa(lp4890
I323
aS'24'
p4891
aa(lp4892
I324
aS'25'
p4893
aa(lp4894
I324
aS'26'
p4895
aa(lp4896
I324
aS'27'
p4897
aa(lp4898
I324
aS'28'
p4899
aa(lp4900
I324
aS'29'
p4901
aa(lp4902
I324
aS'30'
p4903
aa(lp4904
I324
aS'31'
p4905
aa(lp4906
I324
aS'32'
p4907
aa(lp4908
I324
aS'33'
p4909
aa(lp4910
I324
aS'34'
p4911
aa(lp4912
I324
aS'35'
p4913
aa(lp4914
I325
aS'36'
p4915
aa(lp4916
I325
aS'37'
p4917
aa(lp4918
I325
aS'38'
p4919
aa(lp4920
I325
aS'39'
p4921
aa(lp4922
I325
aS'40'
p4923
aa(lp4924
I325
aS'41'
p4925
aa(lp4926
I325
aS'42'
p4927
aa(lp4928
I325
aS'43'
p4929
aa(lp4930
I325
aS'44'
p4931
aa(lp4932
I326
aS'45'
p4933
aa(lp4934
I326
aS'46'
p4935
aa(lp4936
I326
aS'47'
p4937
aa(lp4938
I326
aS'48'
p4939
aa(lp4940
I326
aS'49'
p4941
aa(lp4942
I326
aS'50'
p4943
aa(lp4944
I326
aS'51'
p4945
aa(lp4946
I326
aS'52'
p4947
aa(lp4948
I326
aS'53'
p4949
aa(lp4950
I326
aS'54'
p4951
aa(lp4952
I326
aS'55'
p4953
aa(lp4954
I326
aS'56'
p4955
aa(lp4956
I326
aS'57'
p4957
aa(lp4958
I327
aS'58'
p4959
aa(lp4960
I327
aS'59'
p4961
aa(lp4962
I327
aS'60'
p4963
aa(lp4964
I327
aS'61'
p4965
aa(lp4966
I327
aS'62'
p4967
aa(lp4968
I327
aS'63'
p4969
aa(lp4970
I327
aS'64'
p4971
aa(lp4972
I327
aS'65'
p4973
aa(lp4974
I327
aS'66'
p4975
aa(lp4976
I327
aS'67'
p4977
aa(lp4978
I327
aS'68'
p4979
aa(lp4980
I327
aS'69'
p4981
aa(lp4982
I327
aS'70'
p4983
aa(lp4984
I327
aS'71'
p4985
aa(lp4986
I327
aS'72'
p4987
aa(lp4988
I328
aS'73'
p4989
aa(lp4990
I328
aS'74'
p4991
aa(lp4992
I328
aS'75'
p4993
aa(lp4994
I328
aS'76'
p4995
aa(lp4996
I328
aS'77'
p4997
aa(lp4998
I328
aS'78'
p4999
aa(lp5000
I328
aS'79'
p5001
aa(lp5002
I328
aS'80'
p5003
aa(lp5004
I328
aS'81'
p5005
aa(lp5006
I329
aS'82'
p5007
aa(lp5008
I329
aS'83'
p5009
aa(lp5010
I329
aS'84'
p5011
aa(lp5012
I329
aS'85'
p5013
aa(lp5014
I329
aS'86'
p5015
aa(lp5016
I329
aS'87'
p5017
aa(lp5018
I329
aS'88'
p5019
aa(lp5020
I329
aS'89'
p5021
aa(lp5022
I329
aS'90'
p5023
aa(lp5024
I330
aS'91'
p5025
aa(lp5026
I330
aS'92'
p5027
aa(lp5028
I330
aS'93'
p5029
aa(lp5030
I330
aS'94'
p5031
aa(lp5032
I330
aS'95'
p5033
aa(lp5034
I330
aS'96'
p5035
aa(lp5036
I330
aS'97'
p5037
aa(lp5038
I330
aS'98'
p5039
aa(lp5040
I330
aS'99'
p5041
aa(lp5042
I330
aS'100'
p5043
aa(lp5044
I330
aS'101'
p5045
aa(lp5046
I331
aS'102'
p5047
aa(lp5048
I331
aS'103'
p5049
aa(lp5050
I331
aS'104'
p5051
aa(lp5052
I331
aS'105'
p5053
aa(lp5054
I331
aS'106'
p5055
aa(lp5056
I331
aS'107'
p5057
aa(lp5058
I331
aS'108'
p5059
aa(lp5060
I331
aS'109'
p5061
aa(lp5062
I331
aS'110'
p5063
aa(lp5064
I331
aS'111'
p5065
aa(lp5066
I331
aS'112'
p5067
aaa(lp5068
(lp5069
I332
aV\u0627\u0644\u062d\u062c
p5070
aa(lp5071
I332
aS'1'
aa(lp5072
I332
aS'2'
aa(lp5073
I332
aS'3'
aa(lp5074
I332
aS'4'
aa(lp5075
I332
aS'5'
aa(lp5076
I333
aS'6'
aa(lp5077
I333
aS'7'
aa(lp5078
I333
aS'8'
aa(lp5079
I333
aS'9'
aa(lp5080
I333
aS'10'
p5081
aa(lp5082
I333
aS'11'
p5083
aa(lp5084
I333
aS'12'
p5085
aa(lp5086
I333
aS'13'
p5087
aa(lp5088
I333
aS'14'
p5089
aa(lp5090
I333
aS'15'
p5091
aa(lp5092
I334
aS'16'
p5093
aa(lp5094
I334
aS'17'
p5095
aa(lp5096
I334
aS'18'
p5097
aa(lp5098
I334
aS'19'
p5099
aa(lp5100
I334
aS'20'
p5101
aa(lp5102
I334
aS'21'
p5103
aa(lp5104
I334
aS'22'
p5105
aa(lp5106
I334
aS'23'
p5107
aa(lp5108
I335
aS'24'
p5109
aa(lp5110
I335
aS'25'
p5111
aa(lp5112
I335
aS'26'
p5113
aa(lp5114
I335
aS'27'
p5115
aa(lp5116
I335
aS'28'
p5117
aa(lp5118
I335
aS'29'
p5119
aa(lp5120
I335
aS'30'
p5121
aa(lp5122
I336
aS'31'
p5123
aa(lp5124
I336
aS'32'
p5125
aa(lp5126
I336
aS'33'
p5127
aa(lp5128
I336
aS'34'
p5129
aa(lp5130
I336
aS'35'
p5131
aa(lp5132
I336
aS'36'
p5133
aa(lp5134
I336
aS'37'
p5135
aa(lp5136
I336
aS'38'
p5137
aa(lp5138
I337
aS'39'
p5139
aa(lp5140
I337
aS'40'
p5141
aa(lp5142
I337
aS'41'
p5143
aa(lp5144
I337
aS'42'
p5145
aa(lp5146
I337
aS'43'
p5147
aa(lp5148
I337
aS'44'
p5149
aa(lp5150
I337
aS'45'
p5151
aa(lp5152
I337
aS'46'
p5153
aa(lp5154
I338
aS'47'
p5155
aa(lp5156
I338
aS'48'
p5157
aa(lp5158
I338
aS'49'
p5159
aa(lp5160
I338
aS'50'
p5161
aa(lp5162
I338
aS'51'
p5163
aa(lp5164
I338
aS'52'
p5165
aa(lp5166
I338
aS'53'
p5167
aa(lp5168
I338
aS'54'
p5169
aa(lp5170
I338
aS'55'
p5171
aa(lp5172
I339
aS'56'
p5173
aa(lp5174
I339
aS'57'
p5175
aa(lp5176
I339
aS'58'
p5177
aa(lp5178
I339
aS'59'
p5179
aa(lp5180
I339
aS'60'
p5181
aa(lp5182
I339
aS'61'
p5183
aa(lp5184
I339
aS'62'
p5185
aa(lp5186
I339
aS'63'
p5187
aa(lp5188
I339
aS'64'
p5189
aa(lp5190
I340
aS'65'
p5191
aa(lp5192
I340
aS'66'
p5193
aa(lp5194
I340
aS'67'
p5195
aa(lp5196
I340
aS'68'
p5197
aa(lp5198
I340
aS'69'
p5199
aa(lp5200
I340
aS'70'
p5201
aa(lp5202
I340
aS'71'
p5203
aa(lp5204
I340
aS'72'
p5205
aa(lp5206
I341
aS'73'
p5207
aa(lp5208
I341
aS'74'
p5209
aa(lp5210
I341
aS'75'
p5211
aa(lp5212
I341
aS'76'
p5213
aa(lp5214
I341
aS'77'
p5215
aa(lp5216
I341
aS'78'
p5217
aaa(lp5218
(lp5219
I342
aV\u0627\u0644\u0645\u0624\u0645\u0646\u0648\u0646
p5220
aa(lp5221
I342
aS'1'
aa(lp5222
I342
aS'2'
aa(lp5223
I342
aS'3'
aa(lp5224
I342
aS'4'
aa(lp5225
I342
aS'5'
aa(lp5226
I342
aS'6'
aa(lp5227
I342
aS'7'
aa(lp5228
I342
aS'8'
aa(lp5229
I342
aS'9'
aa(lp5230
I342
aS'10'
p5231
aa(lp5232
I342
aS'11'
p5233
aa(lp5234
I342
aS'12'
p5235
aa(lp5236
I342
aS'13'
p5237
aa(lp5238
I342
aS'14'
p5239
aa(lp5240
I342
aS'15'
p5241
aa(lp5242
I342
aS'16'
p5243
aa(lp5244
I342
aS'17'
p5245
aa(lp5246
I343
aS'18'
p5247
aa(lp5248
I343
aS'19'
p5249
aa(lp5250
I343
aS'20'
p5251
aa(lp5252
I343
aS'21'
p5253
aa(lp5254
I343
aS'22'
p5255
aa(lp5256
I343
aS'23'
p5257
aa(lp5258
I343
aS'24'
p5259
aa(lp5260
I343
aS'25'
p5261
aa(lp5262
I343
aS'26'
p5263
aa(lp5264
I343
aS'27'
p5265
aa(lp5266
I344
aS'28'
p5267
aa(lp5268
I344
aS'29'
p5269
aa(lp5270
I344
aS'30'
p5271
aa(lp5272
I344
aS'31'
p5273
aa(lp5274
I344
aS'32'
p5275
aa(lp5276
I344
aS'33'
p5277
aa(lp5278
I344
aS'34'
p5279
aa(lp5280
I344
aS'35'
p5281
aa(lp5282
I344
aS'36'
p5283
aa(lp5284
I344
aS'37'
p5285
aa(lp5286
I344
aS'38'
p5287
aa(lp5288
I344
aS'39'
p5289
aa(lp5290
I344
aS'40'
p5291
aa(lp5292
I344
aS'41'
p5293
aa(lp5294
I344
aS'42'
p5295
aa(lp5296
I345
aS'43'
p5297
aa(lp5298
I345
aS'44'
p5299
aa(lp5300
I345
aS'45'
p5301
aa(lp5302
I345
aS'46'
p5303
aa(lp5304
I345
aS'47'
p5305
aa(lp5306
I345
aS'48'
p5307
aa(lp5308
I345
aS'49'
p5309
aa(lp5310
I345
aS'50'
p5311
aa(lp5312
I345
aS'51'
p5313
aa(lp5314
I345
aS'52'
p5315
aa(lp5316
I345
aS'53'
p5317
aa(lp5318
I345
aS'54'
p5319
aa(lp5320
I345
aS'55'
p5321
aa(lp5322
I345
aS'56'
p5323
aa(lp5324
I345
aS'57'
p5325
aa(lp5326
I345
aS'58'
p5327
aa(lp5328
I345
aS'59'
p5329
aa(lp5330
I346
aS'60'
p5331
aa(lp5332
I346
aS'61'
p5333
aa(lp5334
I346
aS'62'
p5335
aa(lp5336
I346
aS'63'
p5337
aa(lp5338
I346
aS'64'
p5339
aa(lp5340
I346
aS'65'
p5341
aa(lp5342
I346
aS'66'
p5343
aa(lp5344
I346
aS'67'
p5345
aa(lp5346
I346
aS'68'
p5347
aa(lp5348
I346
aS'69'
p5349
aa(lp5350
I346
aS'70'
p5351
aa(lp5352
I346
aS'71'
p5353
aa(lp5354
I346
aS'72'
p5355
aa(lp5356
I346
aS'73'
p5357
aa(lp5358
I346
aS'74'
p5359
aa(lp5360
I347
aS'75'
p5361
aa(lp5362
I347
aS'76'
p5363
aa(lp5364
I347
aS'77'
p5365
aa(lp5366
I347
aS'78'
p5367
aa(lp5368
I347
aS'79'
p5369
aa(lp5370
I347
aS'80'
p5371
aa(lp5372
I347
aS'81'
p5373
aa(lp5374
I347
aS'82'
p5375
aa(lp5376
I347
aS'83'
p5377
aa(lp5378
I347
aS'84'
p5379
aa(lp5380
I347
aS'85'
p5381
aa(lp5382
I347
aS'86'
p5383
aa(lp5384
I347
aS'87'
p5385
aa(lp5386
I347
aS'88'
p5387
aa(lp5388
I347
aS'89'
p5389
aa(lp5390
I348
aS'90'
p5391
aa(lp5392
I348
aS'91'
p5393
aa(lp5394
I348
aS'92'
p5395
aa(lp5396
I348
aS'93'
p5397
aa(lp5398
I348
aS'94'
p5399
aa(lp5400
I348
aS'95'
p5401
aa(lp5402
I348
aS'96'
p5403
aa(lp5404
I348
aS'97'
p5405
aa(lp5406
I348
aS'98'
p5407
aa(lp5408
I348
aS'99'
p5409
aa(lp5410
I348
aS'100'
p5411
aa(lp5412
I348
aS'101'
p5413
aa(lp5414
I348
aS'102'
p5415
aa(lp5416
I348
aS'103'
p5417
aa(lp5418
I348
aS'104'
p5419
aa(lp5420
I349
aS'105'
p5421
aa(lp5422
I349
aS'106'
p5423
aa(lp5424
I349
aS'107'
p5425
aa(lp5426
I349
aS'108'
p5427
aa(lp5428
I349
aS'109'
p5429
aa(lp5430
I349
aS'110'
p5431
aa(lp5432
I349
aS'111'
p5433
aa(lp5434
I349
aS'112'
p5435
aa(lp5436
I349
aS'113'
p5437
aa(lp5438
I349
aS'114'
p5439
aa(lp5440
I349
aS'115'
p5441
aa(lp5442
I349
aS'116'
p5443
aa(lp5444
I349
aS'117'
p5445
aa(lp5446
I349
aS'118'
p5447
aaa(lp5448
(lp5449
I350
aV\u0627\u0644\u0646\u0648\u0631
p5450
aa(lp5451
I350
aS'1'
aa(lp5452
I350
aS'2'
aa(lp5453
I350
aS'3'
aa(lp5454
I350
aS'4'
aa(lp5455
I350
aS'5'
aa(lp5456
I350
aS'6'
aa(lp5457
I350
aS'7'
aa(lp5458
I350
aS'8'
aa(lp5459
I350
aS'9'
aa(lp5460
I350
aS'10'
p5461
aa(lp5462
I351
aS'11'
p5463
aa(lp5464
I351
aS'12'
p5465
aa(lp5466
I351
aS'13'
p5467
aa(lp5468
I351
aS'14'
p5469
aa(lp5470
I351
aS'15'
p5471
aa(lp5472
I351
aS'16'
p5473
aa(lp5474
I351
aS'17'
p5475
aa(lp5476
I351
aS'18'
p5477
aa(lp5478
I351
aS'19'
p5479
aa(lp5480
I351
aS'20'
p5481
aa(lp5482
I352
aS'21'
p5483
aa(lp5484
I352
aS'22'
p5485
aa(lp5486
I352
aS'23'
p5487
aa(lp5488
I352
aS'24'
p5489
aa(lp5490
I352
aS'25'
p5491
aa(lp5492
I352
aS'26'
p5493
aa(lp5494
I352
aS'27'
p5495
aa(lp5496
I353
aS'28'
p5497
aa(lp5498
I353
aS'29'
p5499
aa(lp5500
I353
aS'30'
p5501
aa(lp5502
I353
aS'31'
p5503
aa(lp5504
I354
aS'32'
p5505
aa(lp5506
I354
aS'33'
p5507
aa(lp5508
I354
aS'34'
p5509
aa(lp5510
I354
aS'35'
p5511
aa(lp5512
I354
aS'36'
p5513
aa(lp5514
I355
aS'37'
p5515
aa(lp5516
I355
aS'38'
p5517
aa(lp5518
I355
aS'39'
p5519
aa(lp5520
I355
aS'40'
p5521
aa(lp5522
I355
aS'41'
p5523
aa(lp5524
I355
aS'42'
p5525
aa(lp5526
I355
aS'43'
p5527
aa(lp5528
I356
aS'44'
p5529
aa(lp5530
I356
aS'45'
p5531
aa(lp5532
I356
aS'46'
p5533
aa(lp5534
I356
aS'47'
p5535
aa(lp5536
I356
aS'48'
p5537
aa(lp5538
I356
aS'49'
p5539
aa(lp5540
I356
aS'50'
p5541
aa(lp5542
I356
aS'51'
p5543
aa(lp5544
I356
aS'52'
p5545
aa(lp5546
I356
aS'53'
p5547
aa(lp5548
I357
aS'54'
p5549
aa(lp5550
I357
aS'55'
p5551
aa(lp5552
I357
aS'56'
p5553
aa(lp5554
I357
aS'57'
p5555
aa(lp5556
I357
aS'58'
p5557
aa(lp5558
I358
aS'59'
p5559
aa(lp5560
I358
aS'60'
p5561
aa(lp5562
I358
aS'61'
p5563
aa(lp5564
I359
aS'62'
p5565
aa(lp5566
I359
aS'63'
p5567
aa(lp5568
I359
aS'64'
p5569
aaa(lp5570
(lp5571
I359
aV\u0627\u0644\u0641\u0631\u0642\u0627\u0646
p5572
aa(lp5573
I359
aS'1'
aa(lp5574
I359
aS'2'
aa(lp5575
I360
aS'3'
aa(lp5576
I360
aS'4'
aa(lp5577
I360
aS'5'
aa(lp5578
I360
aS'6'
aa(lp5579
I360
aS'7'
aa(lp5580
I360
aS'8'
aa(lp5581
I360
aS'9'
aa(lp5582
I360
aS'10'
p5583
aa(lp5584
I360
aS'11'
p5585
aa(lp5586
I361
aS'12'
p5587
aa(lp5588
I361
aS'13'
p5589
aa(lp5590
I361
aS'14'
p5591
aa(lp5592
I361
aS'15'
p5593
aa(lp5594
I361
aS'16'
p5595
aa(lp5596
I361
aS'17'
p5597
aa(lp5598
I361
aS'18'
p5599
aa(lp5600
I361
aS'19'
p5601
aa(lp5602
I361
aS'20'
p5603
aa(lp5604
I362
aS'21'
p5605
aa(lp5606
I362
aS'22'
p5607
aa(lp5608
I362
aS'23'
p5609
aa(lp5610
I362
aS'24'
p5611
aa(lp5612
I362
aS'25'
p5613
aa(lp5614
I362
aS'26'
p5615
aa(lp5616
I362
aS'27'
p5617
aa(lp5618
I362
aS'28'
p5619
aa(lp5620
I362
aS'29'
p5621
aa(lp5622
I362
aS'30'
p5623
aa(lp5624
I362
aS'31'
p5625
aa(lp5626
I362
aS'32'
p5627
aa(lp5628
I363
aS'33'
p5629
aa(lp5630
I363
aS'34'
p5631
aa(lp5632
I363
aS'35'
p5633
aa(lp5634
I363
aS'36'
p5635
aa(lp5636
I363
aS'37'
p5637
aa(lp5638
I363
aS'38'
p5639
aa(lp5640
I363
aS'39'
p5641
aa(lp5642
I363
aS'40'
p5643
aa(lp5644
I363
aS'41'
p5645
aa(lp5646
I363
aS'42'
p5647
aa(lp5648
I363
aS'43'
p5649
aa(lp5650
I364
aS'44'
p5651
aa(lp5652
I364
aS'45'
p5653
aa(lp5654
I364
aS'46'
p5655
aa(lp5656
I364
aS'47'
p5657
aa(lp5658
I364
aS'48'
p5659
aa(lp5660
I364
aS'49'
p5661
aa(lp5662
I364
aS'50'
p5663
aa(lp5664
I364
aS'51'
p5665
aa(lp5666
I364
aS'52'
p5667
aa(lp5668
I364
aS'53'
p5669
aa(lp5670
I364
aS'54'
p5671
aa(lp5672
I364
aS'55'
p5673
aa(lp5674
I365
aS'56'
p5675
aa(lp5676
I365
aS'57'
p5677
aa(lp5678
I365
aS'58'
p5679
aa(lp5680
I365
aS'59'
p5681
aa(lp5682
I365
aS'60'
p5683
aa(lp5684
I365
aS'61'
p5685
aa(lp5686
I365
aS'62'
p5687
aa(lp5688
I365
aS'63'
p5689
aa(lp5690
I365
aS'64'
p5691
aa(lp5692
I365
aS'65'
p5693
aa(lp5694
I365
aS'66'
p5695
aa(lp5696
I365
aS'67'
p5697
aa(lp5698
I366
aS'68'
p5699
aa(lp5700
I366
aS'69'
p5701
aa(lp5702
I366
aS'70'
p5703
aa(lp5704
I366
aS'71'
p5705
aa(lp5706
I366
aS'72'
p5707
aa(lp5708
I366
aS'73'
p5709
aa(lp5710
I366
aS'74'
p5711
aa(lp5712
I366
aS'75'
p5713
aa(lp5714
I366
aS'76'
p5715
aa(lp5716
I366
aS'77'
p5717
aaa(lp5718
(lp5719
I367
aV\u0627\u0644\u0634\u0639\u0631\u0627\u0621
p5720
aa(lp5721
I367
aS'1'
aa(lp5722
I367
aS'2'
aa(lp5723
I367
aS'3'
aa(lp5724
I367
aS'4'
aa(lp5725
I367
aS'5'
aa(lp5726
I367
aS'6'
aa(lp5727
I367
aS'7'
aa(lp5728
I367
aS'8'
aa(lp5729
I367
aS'9'
aa(lp5730
I367
aS'10'
p5731
aa(lp5732
I367
aS'11'
p5733
aa(lp5734
I367
aS'12'
p5735
aa(lp5736
I367
aS'13'
p5737
aa(lp5738
I367
aS'14'
p5739
aa(lp5740
I367
aS'15'
p5741
aa(lp5742
I367
aS'16'
p5743
aa(lp5744
I367
aS'17'
p5745
aa(lp5746
I367
aS'18'
p5747
aa(lp5748
I367
aS'19'
p5749
aa(lp5750
I368
aS'20'
p5751
aa(lp5752
I368
aS'21'
p5753
aa(lp5754
I368
aS'22'
p5755
aa(lp5756
I368
aS'23'
p5757
aa(lp5758
I368
aS'24'
p5759
aa(lp5760
I368
aS'25'
p5761
aa(lp5762
I368
aS'26'
p5763
aa(lp5764
I368
aS'27'
p5765
aa(lp5766
I368
aS'28'
p5767
aa(lp5768
I368
aS'29'
p5769
aa(lp5770
I368
aS'30'
p5771
aa(lp5772
I368
aS'31'
p5773
aa(lp5774
I368
aS'32'
p5775
aa(lp5776
I368
aS'33'
p5777
aa(lp5778
I368
aS'34'
p5779
aa(lp5780
I368
aS'35'
p5781
aa(lp5782
I368
aS'36'
p5783
aa(lp5784
I368
aS'37'
p5785
aa(lp5786
I368
aS'38'
p5787
aa(lp5788
I368
aS'39'
p5789
aa(lp5790
I369
aS'40'
p5791
aa(lp5792
I369
aS'41'
p5793
aa(lp5794
I369
aS'42'
p5795
aa(lp5796
I369
aS'43'
p5797
aa(lp5798
I369
aS'44'
p5799
aa(lp5800
I369
aS'45'
p5801
aa(lp5802
I369
aS'46'
p5803
aa(lp5804
I369
aS'47'
p5805
aa(lp5806
I369
aS'48'
p5807
aa(lp5808
I369
aS'49'
p5809
aa(lp5810
I369
aS'50'
p5811
aa(lp5812
I369
aS'51'
p5813
aa(lp5814
I369
aS'52'
p5815
aa(lp5816
I369
aS'53'
p5817
aa(lp5818
I369
aS'54'
p5819
aa(lp5820
I369
aS'55'
p5821
aa(lp5822
I369
aS'56'
p5823
aa(lp5824
I369
aS'57'
p5825
aa(lp5826
I369
aS'58'
p5827
aa(lp5828
I369
aS'59'
p5829
aa(lp5830
I369
aS'60'
p5831
aa(lp5832
I370
aS'61'
p5833
aa(lp5834
I370
aS'62'
p5835
aa(lp5836
I370
aS'63'
p5837
aa(lp5838
I370
aS'64'
p5839
aa(lp5840
I370
aS'65'
p5841
aa(lp5842
I370
aS'66'
p5843
aa(lp5844
I370
aS'67'
p5845
aa(lp5846
I370
aS'68'
p5847
aa(lp5848
I370
aS'69'
p5849
aa(lp5850
I370
aS'70'
p5851
aa(lp5852
I370
aS'71'
p5853
aa(lp5854
I370
aS'72'
p5855
aa(lp5856
I370
aS'73'
p5857
aa(lp5858
I370
aS'74'
p5859
aa(lp5860
I370
aS'75'
p5861
aa(lp5862
I370
aS'76'
p5863
aa(lp5864
I370
aS'77'
p5865
aa(lp5866
I370
aS'78'
p5867
aa(lp5868
I370
aS'79'
p5869
aa(lp5870
I370
aS'80'
p5871
aa(lp5872
I370
aS'81'
p5873
aa(lp5874
I370
aS'82'
p5875
aa(lp5876
I370
aS'83'
p5877
aa(lp5878
I371
aS'84'
p5879
aa(lp5880
I371
aS'85'
p5881
aa(lp5882
I371
aS'86'
p5883
aa(lp5884
I371
aS'87'
p5885
aa(lp5886
I371
aS'88'
p5887
aa(lp5888
I371
aS'89'
p5889
aa(lp5890
I371
aS'90'
p5891
aa(lp5892
I371
aS'91'
p5893
aa(lp5894
I371
aS'92'
p5895
aa(lp5896
I371
aS'93'
p5897
aa(lp5898
I371
aS'94'
p5899
aa(lp5900
I371
aS'95'
p5901
aa(lp5902
I371
aS'96'
p5903
aa(lp5904
I371
aS'97'
p5905
aa(lp5906
I371
aS'98'
p5907
aa(lp5908
I371
aS'99'
p5909
aa(lp5910
I371
aS'100'
p5911
aa(lp5912
I371
aS'101'
p5913
aa(lp5914
I371
aS'102'
p5915
aa(lp5916
I371
aS'103'
p5917
aa(lp5918
I371
aS'104'
p5919
aa(lp5920
I371
aS'105'
p5921
aa(lp5922
I371
aS'106'
p5923
aa(lp5924
I371
aS'107'
p5925
aa(lp5926
I371
aS'108'
p5927
aa(lp5928
I371
aS'109'
p5929
aa(lp5930
I371
aS'110'
p5931
aa(lp5932
I371
aS'111'
p5933
aa(lp5934
I372
aS'112'
p5935
aa(lp5936
I372
aS'113'
p5937
aa(lp5938
I372
aS'114'
p5939
aa(lp5940
I372
aS'115'
p5941
aa(lp5942
I372
aS'116'
p5943
aa(lp5944
I372
aS'117'
p5945
aa(lp5946
I372
aS'118'
p5947
aa(lp5948
I372
aS'119'
p5949
aa(lp5950
I372
aS'120'
p5951
aa(lp5952
I372
aS'121'
p5953
aa(lp5954
I372
aS'122'
p5955
aa(lp5956
I372
aS'123'
p5957
aa(lp5958
I372
aS'124'
p5959
aa(lp5960
I372
aS'125'
p5961
aa(lp5962
I372
aS'126'
p5963
aa(lp5964
I372
aS'127'
p5965
aa(lp5966
I372
aS'128'
p5967
aa(lp5968
I372
aS'129'
p5969
aa(lp5970
I372
aS'130'
p5971
aa(lp5972
I372
aS'131'
p5973
aa(lp5974
I372
aS'132'
p5975
aa(lp5976
I372
aS'133'
p5977
aa(lp5978
I372
aS'134'
p5979
aa(lp5980
I372
aS'135'
p5981
aa(lp5982
I372
aS'136'
p5983
aa(lp5984
I373
aS'137'
p5985
aa(lp5986
I373
aS'138'
p5987
aa(lp5988
I373
aS'139'
p5989
aa(lp5990
I373
aS'140'
p5991
aa(lp5992
I373
aS'141'
p5993
aa(lp5994
I373
aS'142'
p5995
aa(lp5996
I373
aS'143'
p5997
aa(lp5998
I373
aS'144'
p5999
aa(lp6000
I373
aS'145'
p6001
aa(lp6002
I373
aS'146'
p6003
aa(lp6004
I373
aS'147'
p6005
aa(lp6006
I373
aS'148'
p6007
aa(lp6008
I373
aS'149'
p6009
aa(lp6010
I373
aS'150'
p6011
aa(lp6012
I373
aS'151'
p6013
aa(lp6014
I373
aS'152'
p6015
aa(lp6016
I373
aS'153'
p6017
aa(lp6018
I373
aS'154'
p6019
aa(lp6020
I373
aS'155'
p6021
aa(lp6022
I373
aS'156'
p6023
aa(lp6024
I373
aS'157'
p6025
aa(lp6026
I373
aS'158'
p6027
aa(lp6028
I373
aS'159'
p6029
aa(lp6030
I374
aS'160'
p6031
aa(lp6032
I374
aS'161'
p6033
aa(lp6034
I374
aS'162'
p6035
aa(lp6036
I374
aS'163'
p6037
aa(lp6038
I374
aS'164'
p6039
aa(lp6040
I374
aS'165'
p6041
aa(lp6042
I374
aS'166'
p6043
aa(lp6044
I374
aS'167'
p6045
aa(lp6046
I374
aS'168'
p6047
aa(lp6048
I374
aS'169'
p6049
aa(lp6050
I374
aS'170'
p6051
aa(lp6052
I374
aS'171'
p6053
aa(lp6054
I374
aS'172'
p6055
aa(lp6056
I374
aS'173'
p6057
aa(lp6058
I374
aS'174'
p6059
aa(lp6060
I374
aS'175'
p6061
aa(lp6062
I374
aS'176'
p6063
aa(lp6064
I374
aS'177'
p6065
aa(lp6066
I374
aS'178'
p6067
aa(lp6068
I374
aS'179'
p6069
aa(lp6070
I374
aS'180'
p6071
aa(lp6072
I374
aS'181'
p6073
aa(lp6074
I374
aS'182'
p6075
aa(lp6076
I374
aS'183'
p6077
aa(lp6078
I375
aS'184'
p6079
aa(lp6080
I375
aS'185'
p6081
aa(lp6082
I375
aS'186'
p6083
aa(lp6084
I375
aS'187'
p6085
aa(lp6086
I375
aS'188'
p6087
aa(lp6088
I375
aS'189'
p6089
aa(lp6090
I375
aS'190'
p6091
aa(lp6092
I375
aS'191'
p6093
aa(lp6094
I375
aS'192'
p6095
aa(lp6096
I375
aS'193'
p6097
aa(lp6098
I375
aS'194'
p6099
aa(lp6100
I375
aS'195'
p6101
aa(lp6102
I375
aS'196'
p6103
aa(lp6104
I375
aS'197'
p6105
aa(lp6106
I375
aS'198'
p6107
aa(lp6108
I375
aS'199'
p6109
aa(lp6110
I375
aS'200'
p6111
aa(lp6112
I375
aS'201'
p6113
aa(lp6114
I375
aS'202'
p6115
aa(lp6116
I375
aS'203'
p6117
aa(lp6118
I375
aS'204'
p6119
aa(lp6120
I375
aS'205'
p6121
aa(lp6122
I375
aS'206'
p6123
aa(lp6124
I376
aS'207'
p6125
aa(lp6126
I376
aS'208'
p6127
aa(lp6128
I376
aS'209'
p6129
aa(lp6130
I376
aS'210'
p6131
aa(lp6132
I376
aS'211'
p6133
aa(lp6134
I376
aS'212'
p6135
aa(lp6136
I376
aS'213'
p6137
aa(lp6138
I376
aS'214'
p6139
aa(lp6140
I376
aS'215'
p6141
aa(lp6142
I376
aS'216'
p6143
aa(lp6144
I376
aS'217'
p6145
aa(lp6146
I376
aS'218'
p6147
aa(lp6148
I376
aS'219'
p6149
aa(lp6150
I376
aS'220'
p6151
aa(lp6152
I376
aS'221'
p6153
aa(lp6154
I376
aS'222'
p6155
aa(lp6156
I376
aS'223'
p6157
aa(lp6158
I376
aS'224'
p6159
aa(lp6160
I376
aS'225'
p6161
aa(lp6162
I376
aS'226'
p6163
aa(lp6164
I376
aS'227'
p6165
aaa(lp6166
(lp6167
I377
aV\u0627\u0644\u0646\u0645\u0644
p6168
aa(lp6169
I377
aS'1'
aa(lp6170
I377
aS'2'
aa(lp6171
I377
aS'3'
aa(lp6172
I377
aS'4'
aa(lp6173
I377
aS'5'
aa(lp6174
I377
aS'6'
aa(lp6175
I377
aS'7'
aa(lp6176
I377
aS'8'
aa(lp6177
I377
aS'9'
aa(lp6178
I377
aS'10'
p6179
aa(lp6180
I377
aS'11'
p6181
aa(lp6182
I377
aS'12'
p6183
aa(lp6184
I377
aS'13'
p6185
aa(lp6186
I378
aS'14'
p6187
aa(lp6188
I378
aS'15'
p6189
aa(lp6190
I378
aS'16'
p6191
aa(lp6192
I378
aS'17'
p6193
aa(lp6194
I378
aS'18'
p6195
aa(lp6196
I378
aS'19'
p6197
aa(lp6198
I378
aS'20'
p6199
aa(lp6200
I378
aS'21'
p6201
aa(lp6202
I378
aS'22'
p6203
aa(lp6204
I379
aS'23'
p6205
aa(lp6206
I379
aS'24'
p6207
aa(lp6208
I379
aS'25'
p6209
aa(lp6210
I379
aS'26'
p6211
aa(lp6212
I379
aS'27'
p6213
aa(lp6214
I379
aS'28'
p6215
aa(lp6216
I379
aS'29'
p6217
aa(lp6218
I379
aS'30'
p6219
aa(lp6220
I379
aS'31'
p6221
aa(lp6222
I379
aS'32'
p6223
aa(lp6224
I379
aS'33'
p6225
aa(lp6226
I379
aS'34'
p6227
aa(lp6228
I379
aS'35'
p6229
aa(lp6230
I380
aS'36'
p6231
aa(lp6232
I380
aS'37'
p6233
aa(lp6234
I380
aS'38'
p6235
aa(lp6236
I380
aS'39'
p6237
aa(lp6238
I380
aS'40'
p6239
aa(lp6240
I380
aS'41'
p6241
aa(lp6242
I380
aS'42'
p6243
aa(lp6244
I380
aS'43'
p6245
aa(lp6246
I380
aS'44'
p6247
aa(lp6248
I381
aS'45'
p6249
aa(lp6250
I381
aS'46'
p6251
aa(lp6252
I381
aS'47'
p6253
aa(lp6254
I381
aS'48'
p6255
aa(lp6256
I381
aS'49'
p6257
aa(lp6258
I381
aS'50'
p6259
aa(lp6260
I381
aS'51'
p6261
aa(lp6262
I381
aS'52'
p6263
aa(lp6264
I381
aS'53'
p6265
aa(lp6266
I381
aS'54'
p6267
aa(lp6268
I381
aS'55'
p6269
aa(lp6270
I382
aS'56'
p6271
aa(lp6272
I382
aS'57'
p6273
aa(lp6274
I382
aS'58'
p6275
aa(lp6276
I382
aS'59'
p6277
aa(lp6278
I382
aS'60'
p6279
aa(lp6280
I382
aS'61'
p6281
aa(lp6282
I382
aS'62'
p6283
aa(lp6284
I382
aS'63'
p6285
aa(lp6286
I383
aS'64'
p6287
aa(lp6288
I383
aS'65'
p6289
aa(lp6290
I383
aS'66'
p6291
aa(lp6292
I383
aS'67'
p6293
aa(lp6294
I383
aS'68'
p6295
aa(lp6296
I383
aS'69'
p6297
aa(lp6298
I383
aS'70'
p6299
aa(lp6300
I383
aS'71'
p6301
aa(lp6302
I383
aS'72'
p6303
aa(lp6304
I383
aS'73'
p6305
aa(lp6306
I383
aS'74'
p6307
aa(lp6308
I383
aS'75'
p6309
aa(lp6310
I383
aS'76'
p6311
aa(lp6312
I384
aS'77'
p6313
aa(lp6314
I384
aS'78'
p6315
aa(lp6316
I384
aS'79'
p6317
aa(lp6318
I384
aS'80'
p6319
aa(lp6320
I384
aS'81'
p6321
aa(lp6322
I384
aS'82'
p6323
aa(lp6324
I384
aS'83'
p6325
aa(lp6326
I384
aS'84'
p6327
aa(lp6328
I384
aS'85'
p6329
aa(lp6330
I384
aS'86'
p6331
aa(lp6332
I384
aS'87'
p6333
aa(lp6334
I384
aS'88'
p6335
aa(lp6336
I385
aS'89'
p6337
aa(lp6338
I385
aS'90'
p6339
aa(lp6340
I385
aS'91'
p6341
aa(lp6342
I385
aS'92'
p6343
aa(lp6344
I385
aS'93'
p6345
aaa(lp6346
(lp6347
I385
aV\u0627\u0644\u0642\u0635\u0635
p6348
aa(lp6349
I385
aS'1'
aa(lp6350
I385
aS'2'
aa(lp6351
I385
aS'3'
aa(lp6352
I385
aS'4'
aa(lp6353
I385
aS'5'
aa(lp6354
I386
aS'6'
aa(lp6355
I386
aS'7'
aa(lp6356
I386
aS'8'
aa(lp6357
I386
aS'9'
aa(lp6358
I386
aS'10'
p6359
aa(lp6360
I386
aS'11'
p6361
aa(lp6362
I386
aS'12'
p6363
aa(lp6364
I386
aS'13'
p6365
aa(lp6366
I387
aS'14'
p6367
aa(lp6368
I387
aS'15'
p6369
aa(lp6370
I387
aS'16'
p6371
aa(lp6372
I387
aS'17'
p6373
aa(lp6374
I387
aS'18'
p6375
aa(lp6376
I387
aS'19'
p6377
aa(lp6378
I387
aS'20'
p6379
aa(lp6380
I387
aS'21'
p6381
aa(lp6382
I388
aS'22'
p6383
aa(lp6384
I388
aS'23'
p6385
aa(lp6386
I388
aS'24'
p6387
aa(lp6388
I388
aS'25'
p6389
aa(lp6390
I388
aS'26'
p6391
aa(lp6392
I388
aS'27'
p6393
aa(lp6394
I388
aS'28'
p6395
aa(lp6396
I389
aS'29'
p6397
aa(lp6398
I389
aS'30'
p6399
aa(lp6400
I389
aS'31'
p6401
aa(lp6402
I389
aS'32'
p6403
aa(lp6404
I389
aS'33'
p6405
aa(lp6406
I389
aS'34'
p6407
aa(lp6408
I389
aS'35'
p6409
aa(lp6410
I390
aS'36'
p6411
aa(lp6412
I390
aS'37'
p6413
aa(lp6414
I390
aS'38'
p6415
aa(lp6416
I390
aS'39'
p6417
aa(lp6418
I390
aS'40'
p6419
aa(lp6420
I390
aS'41'
p6421
aa(lp6422
I390
aS'42'
p6423
aa(lp6424
I390
aS'43'
p6425
aa(lp6426
I391
aS'44'
p6427
aa(lp6428
I391
aS'45'
p6429
aa(lp6430
I391
aS'46'
p6431
aa(lp6432
I391
aS'47'
p6433
aa(lp6434
I391
aS'48'
p6435
aa(lp6436
I391
aS'49'
p6437
aa(lp6438
I391
aS'50'
p6439
aa(lp6440
I392
aS'51'
p6441
aa(lp6442
I392
aS'52'
p6443
aa(lp6444
I392
aS'53'
p6445
aa(lp6446
I392
aS'54'
p6447
aa(lp6448
I392
aS'55'
p6449
aa(lp6450
I392
aS'56'
p6451
aa(lp6452
I392
aS'57'
p6453
aa(lp6454
I392
aS'58'
p6455
aa(lp6456
I392
aS'59'
p6457
aa(lp6458
I393
aS'60'
p6459
aa(lp6460
I393
aS'61'
p6461
aa(lp6462
I393
aS'62'
p6463
aa(lp6464
I393
aS'63'
p6465
aa(lp6466
I393
aS'64'
p6467
aa(lp6468
I393
aS'65'
p6469
aa(lp6470
I393
aS'66'
p6471
aa(lp6472
I393
aS'67'
p6473
aa(lp6474
I393
aS'68'
p6475
aa(lp6476
I393
aS'69'
p6477
aa(lp6478
I393
aS'70'
p6479
aa(lp6480
I394
aS'71'
p6481
aa(lp6482
I394
aS'72'
p6483
aa(lp6484
I394
aS'73'
p6485
aa(lp6486
I394
aS'74'
p6487
aa(lp6488
I394
aS'75'
p6489
aa(lp6490
I394
aS'76'
p6491
aa(lp6492
I394
aS'77'
p6493
aa(lp6494
I395
aS'78'
p6495
aa(lp6496
I395
aS'79'
p6497
aa(lp6498
I395
aS'80'
p6499
aa(lp6500
I395
aS'81'
p6501
aa(lp6502
I395
aS'82'
p6503
aa(lp6504
I395
aS'83'
p6505
aa(lp6506
I395
aS'84'
p6507
aa(lp6508
I396
aS'85'
p6509
aa(lp6510
I396
aS'86'
p6511
aa(lp6512
I396
aS'87'
p6513
aa(lp6514
I396
aS'88'
p6515
aaa(lp6516
(lp6517
I396
aV\u0627\u0644\u0639\u0646\u0643\u0628\u0648\u062a
p6518
aa(lp6519
I396
aS'1'
aa(lp6520
I396
aS'2'
aa(lp6521
I396
aS'3'
aa(lp6522
I396
aS'4'
aa(lp6523
I396
aS'5'
aa(lp6524
I396
aS'6'
aa(lp6525
I397
aS'7'
aa(lp6526
I397
aS'8'
aa(lp6527
I397
aS'9'
aa(lp6528
I397
aS'10'
p6529
aa(lp6530
I397
aS'11'
p6531
aa(lp6532
I397
aS'12'
p6533
aa(lp6534
I397
aS'13'
p6535
aa(lp6536
I397
aS'14'
p6537
aa(lp6538
I398
aS'15'
p6539
aa(lp6540
I398
aS'16'
p6541
aa(lp6542
I398
aS'17'
p6543
aa(lp6544
I398
aS'18'
p6545
aa(lp6546
I398
aS'19'
p6547
aa(lp6548
I398
aS'20'
p6549
aa(lp6550
I398
aS'21'
p6551
aa(lp6552
I398
aS'22'
p6553
aa(lp6554
I398
aS'23'
p6555
aa(lp6556
I399
aS'24'
p6557
aa(lp6558
I399
aS'25'
p6559
aa(lp6560
I399
aS'26'
p6561
aa(lp6562
I399
aS'27'
p6563
aa(lp6564
I399
aS'28'
p6565
aa(lp6566
I399
aS'29'
p6567
aa(lp6568
I399
aS'30'
p6569
aa(lp6570
I400
aS'31'
p6571
aa(lp6572
I400
aS'32'
p6573
aa(lp6574
I400
aS'33'
p6575
aa(lp6576
I400
aS'34'
p6577
aa(lp6578
I400
aS'35'
p6579
aa(lp6580
I400
aS'36'
p6581
aa(lp6582
I400
aS'37'
p6583
aa(lp6584
I400
aS'38'
p6585
aa(lp6586
I401
aS'39'
p6587
aa(lp6588
I401
aS'40'
p6589
aa(lp6590
I401
aS'41'
p6591
aa(lp6592
I401
aS'42'
p6593
aa(lp6594
I401
aS'43'
p6595
aa(lp6596
I401
aS'44'
p6597
aa(lp6598
I401
aS'45'
p6599
aa(lp6600
I402
aS'46'
p6601
aa(lp6602
I402
aS'47'
p6603
aa(lp6604
I402
aS'48'
p6605
aa(lp6606
I402
aS'49'
p6607
aa(lp6608
I402
aS'50'
p6609
aa(lp6610
I402
aS'51'
p6611
aa(lp6612
I402
aS'52'
p6613
aa(lp6614
I403
aS'53'
p6615
aa(lp6616
I403
aS'54'
p6617
aa(lp6618
I403
aS'55'
p6619
aa(lp6620
I403
aS'56'
p6621
aa(lp6622
I403
aS'57'
p6623
aa(lp6624
I403
aS'58'
p6625
aa(lp6626
I403
aS'59'
p6627
aa(lp6628
I403
aS'60'
p6629
aa(lp6630
I403
aS'61'
p6631
aa(lp6632
I403
aS'62'
p6633
aa(lp6634
I403
aS'63'
p6635
aa(lp6636
I404
aS'64'
p6637
aa(lp6638
I404
aS'65'
p6639
aa(lp6640
I404
aS'66'
p6641
aa(lp6642
I404
aS'67'
p6643
aa(lp6644
I404
aS'68'
p6645
aa(lp6646
I404
aS'69'
p6647
aaa(lp6648
(lp6649
I404
aV\u0627\u0644\u0631\u0648\u0645
p6650
aa(lp6651
I404
aS'1'
aa(lp6652
I404
aS'2'
aa(lp6653
I404
aS'3'
aa(lp6654
I404
aS'4'
aa(lp6655
I404
aS'5'
aa(lp6656
I405
aS'6'
aa(lp6657
I405
aS'7'
aa(lp6658
I405
aS'8'
aa(lp6659
I405
aS'9'
aa(lp6660
I405
aS'10'
p6661
aa(lp6662
I405
aS'11'
p6663
aa(lp6664
I405
aS'12'
p6665
aa(lp6666
I405
aS'13'
p6667
aa(lp6668
I405
aS'14'
p6669
aa(lp6670
I405
aS'15'
p6671
aa(lp6672
I406
aS'16'
p6673
aa(lp6674
I406
aS'17'
p6675
aa(lp6676
I406
aS'18'
p6677
aa(lp6678
I406
aS'19'
p6679
aa(lp6680
I406
aS'20'
p6681
aa(lp6682
I406
aS'21'
p6683
aa(lp6684
I406
aS'22'
p6685
aa(lp6686
I406
aS'23'
p6687
aa(lp6688
I406
aS'24'
p6689
aa(lp6690
I407
aS'25'
p6691
aa(lp6692
I407
aS'26'
p6693
aa(lp6694
I407
aS'27'
p6695
aa(lp6696
I407
aS'28'
p6697
aa(lp6698
I407
aS'29'
p6699
aa(lp6700
I407
aS'30'
p6701
aa(lp6702
I407
aS'31'
p6703
aa(lp6704
I407
aS'32'
p6705
aa(lp6706
I408
aS'33'
p6707
aa(lp6708
I408
aS'34'
p6709
aa(lp6710
I408
aS'35'
p6711
aa(lp6712
I408
aS'36'
p6713
aa(lp6714
I408
aS'37'
p6715
aa(lp6716
I408
aS'38'
p6717
aa(lp6718
I408
aS'39'
p6719
aa(lp6720
I408
aS'40'
p6721
aa(lp6722
I408
aS'41'
p6723
aa(lp6724
I409
aS'42'
p6725
aa(lp6726
I409
aS'43'
p6727
aa(lp6728
I409
aS'44'
p6729
aa(lp6730
I409
aS'45'
p6731
aa(lp6732
I409
aS'46'
p6733
aa(lp6734
I409
aS'47'
p6735
aa(lp6736
I409
aS'48'
p6737
aa(lp6738
I409
aS'49'
p6739
aa(lp6740
I409
aS'50'
p6741
aa(lp6742
I410
aS'51'
p6743
aa(lp6744
I410
aS'52'
p6745
aa(lp6746
I410
aS'53'
p6747
aa(lp6748
I410
aS'54'
p6749
aa(lp6750
I410
aS'55'
p6751
aa(lp6752
I410
aS'56'
p6753
aa(lp6754
I410
aS'57'
p6755
aa(lp6756
I410
aS'58'
p6757
aa(lp6758
I410
aS'59'
p6759
aa(lp6760
I410
aS'60'
p6761
aaa(lp6762
(lp6763
I411
aV\u0644\u0642\u0645\u0627\u0646
p6764
aa(lp6765
I411
aS'1'
aa(lp6766
I411
aS'2'
aa(lp6767
I411
aS'3'
aa(lp6768
I411
aS'4'
aa(lp6769
I411
aS'5'
aa(lp6770
I411
aS'6'
aa(lp6771
I411
aS'7'
aa(lp6772
I411
aS'8'
aa(lp6773
I411
aS'9'
aa(lp6774
I411
aS'10'
p6775
aa(lp6776
I411
aS'11'
p6777
aa(lp6778
I412
aS'12'
p6779
aa(lp6780
I412
aS'13'
p6781
aa(lp6782
I412
aS'14'
p6783
aa(lp6784
I412
aS'15'
p6785
aa(lp6786
I412
aS'16'
p6787
aa(lp6788
I412
aS'17'
p6789
aa(lp6790
I412
aS'18'
p6791
aa(lp6792
I412
aS'19'
p6793
aa(lp6794
I413
aS'20'
p6795
aa(lp6796
I413
aS'21'
p6797
aa(lp6798
I413
aS'22'
p6799
aa(lp6800
I413
aS'23'
p6801
aa(lp6802
I413
aS'24'
p6803
aa(lp6804
I413
aS'25'
p6805
aa(lp6806
I413
aS'26'
p6807
aa(lp6808
I413
aS'27'
p6809
aa(lp6810
I413
aS'28'
p6811
aa(lp6812
I414
aS'29'
p6813
aa(lp6814
I414
aS'30'
p6815
aa(lp6816
I414
aS'31'
p6817
aa(lp6818
I414
aS'32'
p6819
aa(lp6820
I414
aS'33'
p6821
aa(lp6822
I414
aS'34'
p6823
aaa(lp6824
(lp6825
I415
aV\u0627\u0644\u0633\u062c\u062f\u0629
p6826
aa(lp6827
I415
aS'1'
aa(lp6828
I415
aS'2'
aa(lp6829
I415
aS'3'
aa(lp6830
I415
aS'4'
aa(lp6831
I415
aS'5'
aa(lp6832
I415
aS'6'
aa(lp6833
I415
aS'7'
aa(lp6834
I415
aS'8'
aa(lp6835
I415
aS'9'
aa(lp6836
I415
aS'10'
p6837
aa(lp6838
I415
aS'11'
p6839
aa(lp6840
I416
aS'12'
p6841
aa(lp6842
I416
aS'13'
p6843
aa(lp6844
I416
aS'14'
p6845
aa(lp6846
I416
aS'15'
p6847
aa(lp6848
I416
aS'16'
p6849
aa(lp6850
I416
aS'17'
p6851
aa(lp6852
I416
aS'18'
p6853
aa(lp6854
I416
aS'19'
p6855
aa(lp6856
I416
aS'20'
p6857
aa(lp6858
I417
aS'21'
p6859
aa(lp6860
I417
aS'22'
p6861
aa(lp6862
I417
aS'23'
p6863
aa(lp6864
I417
aS'24'
p6865
aa(lp6866
I417
aS'25'
p6867
aa(lp6868
I417
aS'26'
p6869
aa(lp6870
I417
aS'27'
p6871
aa(lp6872
I417
aS'28'
p6873
aa(lp6874
I417
aS'29'
p6875
aa(lp6876
I417
aS'30'
p6877
aaa(lp6878
(lp6879
I418
aV\u0627\u0644\u0623\u062d\u0632\u0627\u0628
p6880
aa(lp6881
I418
aS'1'
aa(lp6882
I418
aS'2'
aa(lp6883
I418
aS'3'
aa(lp6884
I418
aS'4'
aa(lp6885
I418
aS'5'
aa(lp6886
I418
aS'6'
aa(lp6887
I419
aS'7'
aa(lp6888
I419
aS'8'
aa(lp6889
I419
aS'9'
aa(lp6890
I419
aS'10'
p6891
aa(lp6892
I419
aS'11'
p6893
aa(lp6894
I419
aS'12'
p6895
aa(lp6896
I419
aS'13'
p6897
aa(lp6898
I419
aS'14'
p6899
aa(lp6900
I419
aS'15'
p6901
aa(lp6902
I420
aS'16'
p6903
aa(lp6904
I420
aS'17'
p6905
aa(lp6906
I420
aS'18'
p6907
aa(lp6908
I420
aS'19'
p6909
aa(lp6910
I420
aS'20'
p6911
aa(lp6912
I420
aS'21'
p6913
aa(lp6914
I420
aS'22'
p6915
aa(lp6916
I421
aS'23'
p6917
aa(lp6918
I421
aS'24'
p6919
aa(lp6920
I421
aS'25'
p6921
aa(lp6922
I421
aS'26'
p6923
aa(lp6924
I421
aS'27'
p6925
aa(lp6926
I421
aS'28'
p6927
aa(lp6928
I421
aS'29'
p6929
aa(lp6930
I421
aS'30'
p6931
aa(lp6932
I422
aS'31'
p6933
aa(lp6934
I422
aS'32'
p6935
aa(lp6936
I422
aS'33'
p6937
aa(lp6938
I422
aS'34'
p6939
aa(lp6940
I422
aS'35'
p6941
aa(lp6942
I423
aS'36'
p6943
aa(lp6944
I423
aS'37'
p6945
aa(lp6946
I423
aS'38'
p6947
aa(lp6948
I423
aS'39'
p6949
aa(lp6950
I423
aS'40'
p6951
aa(lp6952
I423
aS'41'
p6953
aa(lp6954
I423
aS'42'
p6955
aa(lp6956
I423
aS'43'
p6957
aa(lp6958
I424
aS'44'
p6959
aa(lp6960
I424
aS'45'
p6961
aa(lp6962
I424
aS'46'
p6963
aa(lp6964
I424
aS'47'
p6965
aa(lp6966
I424
aS'48'
p6967
aa(lp6968
I424
aS'49'
p6969
aa(lp6970
I424
aS'50'
p6971
aa(lp6972
I425
aS'51'
p6973
aa(lp6974
I425
aS'52'
p6975
aa(lp6976
I425
aS'53'
p6977
aa(lp6978
I425
aS'54'
p6979
aa(lp6980
I426
aS'55'
p6981
aa(lp6982
I426
aS'56'
p6983
aa(lp6984
I426
aS'57'
p6985
aa(lp6986
I426
aS'58'
p6987
aa(lp6988
I426
aS'59'
p6989
aa(lp6990
I426
aS'60'
p6991
aa(lp6992
I426
aS'61'
p6993
aa(lp6994
I426
aS'62'
p6995
aa(lp6996
I427
aS'63'
p6997
aa(lp6998
I427
aS'64'
p6999
aa(lp7000
I427
aS'65'
p7001
aa(lp7002
I427
aS'66'
p7003
aa(lp7004
I427
aS'67'
p7005
aa(lp7006
I427
aS'68'
p7007
aa(lp7008
I427
aS'69'
p7009
aa(lp7010
I427
aS'70'
p7011
aa(lp7012
I427
aS'71'
p7013
aa(lp7014
I427
aS'72'
p7015
aa(lp7016
I427
aS'73'
p7017
aaa(lp7018
(lp7019
I428
aV\u0633\u0628\u0623
p7020
aa(lp7021
I428
aS'1'
aa(lp7022
I428
aS'2'
aa(lp7023
I428
aS'3'
aa(lp7024
I428
aS'4'
aa(lp7025
I428
aS'5'
aa(lp7026
I428
aS'6'
aa(lp7027
I428
aS'7'
aa(lp7028
I429
aS'8'
aa(lp7029
I429
aS'9'
aa(lp7030
I429
aS'10'
p7031
aa(lp7032
I429
aS'11'
p7033
aa(lp7034
I429
aS'12'
p7035
aa(lp7036
I429
aS'13'
p7037
aa(lp7038
I429
aS'14'
p7039
aa(lp7040
I430
aS'15'
p7041
aa(lp7042
I430
aS'16'
p7043
aa(lp7044
I430
aS'17'
p7045
aa(lp7046
I430
aS'18'
p7047
aa(lp7048
I430
aS'19'
p7049
aa(lp7050
I430
aS'20'
p7051
aa(lp7052
I430
aS'21'
p7053
aa(lp7054
I430
aS'22'
p7055
aa(lp7056
I431
aS'23'
p7057
aa(lp7058
I431
aS'24'
p7059
aa(lp7060
I431
aS'25'
p7061
aa(lp7062
I431
aS'26'
p7063
aa(lp7064
I431
aS'27'
p7065
aa(lp7066
I431
aS'28'
p7067
aa(lp7068
I431
aS'29'
p7069
aa(lp7070
I431
aS'30'
p7071
aa(lp7072
I431
aS'31'
p7073
aa(lp7074
I432
aS'32'
p7075
aa(lp7076
I432
aS'33'
p7077
aa(lp7078
I432
aS'34'
p7079
aa(lp7080
I432
aS'35'
p7081
aa(lp7082
I432
aS'36'
p7083
aa(lp7084
I432
aS'37'
p7085
aa(lp7086
I432
aS'38'
p7087
aa(lp7088
I432
aS'39'
p7089
aa(lp7090
I433
aS'40'
p7091
aa(lp7092
I433
aS'41'
p7093
aa(lp7094
I433
aS'42'
p7095
aa(lp7096
I433
aS'43'
p7097
aa(lp7098
I433
aS'44'
p7099
aa(lp7100
I433
aS'45'
p7101
aa(lp7102
I433
aS'46'
p7103
aa(lp7104
I433
aS'47'
p7105
aa(lp7106
I433
aS'48'
p7107
aa(lp7108
I434
aS'49'
p7109
aa(lp7110
I434
aS'50'
p7111
aa(lp7112
I434
aS'51'
p7113
aa(lp7114
I434
aS'52'
p7115
aa(lp7116
I434
aS'53'
p7117
aa(lp7118
I434
aS'54'
p7119
aaa(lp7120
(lp7121
I434
aV\u0641\u0627\u0637\u0631
p7122
aa(lp7123
I434
aS'1'
aa(lp7124
I434
aS'2'
aa(lp7125
I434
aS'3'
aa(lp7126
I435
aS'4'
aa(lp7127
I435
aS'5'
aa(lp7128
I435
aS'6'
aa(lp7129
I435
aS'7'
aa(lp7130
I435
aS'8'
aa(lp7131
I435
aS'9'
aa(lp7132
I435
aS'10'
p7133
aa(lp7134
I435
aS'11'
p7135
aa(lp7136
I436
aS'12'
p7137
aa(lp7138
I436
aS'13'
p7139
aa(lp7140
I436
aS'14'
p7141
aa(lp7142
I436
aS'15'
p7143
aa(lp7144
I436
aS'16'
p7145
aa(lp7146
I436
aS'17'
p7147
aa(lp7148
I436
aS'18'
p7149
aa(lp7150
I437
aS'19'
p7151
aa(lp7152
I437
aS'20'
p7153
aa(lp7154
I437
aS'21'
p7155
aa(lp7156
I437
aS'22'
p7157
aa(lp7158
I437
aS'23'
p7159
aa(lp7160
I437
aS'24'
p7161
aa(lp7162
I437
aS'25'
p7163
aa(lp7164
I437
aS'26'
p7165
aa(lp7166
I437
aS'27'
p7167
aa(lp7168
I437
aS'28'
p7169
aa(lp7170
I437
aS'29'
p7171
aa(lp7172
I437
aS'30'
p7173
aa(lp7174
I438
aS'31'
p7175
aa(lp7176
I438
aS'32'
p7177
aa(lp7178
I438
aS'33'
p7179
aa(lp7180
I438
aS'34'
p7181
aa(lp7182
I438
aS'35'
p7183
aa(lp7184
I438
aS'36'
p7185
aa(lp7186
I438
aS'37'
p7187
aa(lp7188
I438
aS'38'
p7189
aa(lp7190
I439
aS'39'
p7191
aa(lp7192
I439
aS'40'
p7193
aa(lp7194
I439
aS'41'
p7195
aa(lp7196
I439
aS'42'
p7197
aa(lp7198
I439
aS'43'
p7199
aa(lp7200
I439
aS'44'
p7201
aa(lp7202
I440
aS'45'
p7203
aaa(lp7204
(lp7205
I440
aV\u064a\u0633
p7206
aa(lp7207
I440
aS'1'
aa(lp7208
I440
aS'2'
aa(lp7209
I440
aS'3'
aa(lp7210
I440
aS'4'
aa(lp7211
I440
aS'5'
aa(lp7212
I440
aS'6'
aa(lp7213
I440
aS'7'
aa(lp7214
I440
aS'8'
aa(lp7215
I440
aS'9'
aa(lp7216
I440
aS'10'
p7217
aa(lp7218
I440
aS'11'
p7219
aa(lp7220
I440
aS'12'
p7221
aa(lp7222
I441
aS'13'
p7223
aa(lp7224
I441
aS'14'
p7225
aa(lp7226
I441
aS'15'
p7227
aa(lp7228
I441
aS'16'
p7229
aa(lp7230
I441
aS'17'
p7231
aa(lp7232
I441
aS'18'
p7233
aa(lp7234
I441
aS'19'
p7235
aa(lp7236
I441
aS'20'
p7237
aa(lp7238
I441
aS'21'
p7239
aa(lp7240
I441
aS'22'
p7241
aa(lp7242
I441
aS'23'
p7243
aa(lp7244
I441
aS'24'
p7245
aa(lp7246
I441
aS'25'
p7247
aa(lp7248
I441
aS'26'
p7249
aa(lp7250
I441
aS'27'
p7251
aa(lp7252
I442
aS'28'
p7253
aa(lp7254
I442
aS'29'
p7255
aa(lp7256
I442
aS'30'
p7257
aa(lp7258
I442
aS'31'
p7259
aa(lp7260
I442
aS'32'
p7261
aa(lp7262
I442
aS'33'
p7263
aa(lp7264
I442
aS'34'
p7265
aa(lp7266
I442
aS'35'
p7267
aa(lp7268
I442
aS'36'
p7269
aa(lp7270
I442
aS'37'
p7271
aa(lp7272
I442
aS'38'
p7273
aa(lp7274
I442
aS'39'
p7275
aa(lp7276
I442
aS'40'
p7277
aa(lp7278
I443
aS'41'
p7279
aa(lp7280
I443
aS'42'
p7281
aa(lp7282
I443
aS'43'
p7283
aa(lp7284
I443
aS'44'
p7285
aa(lp7286
I443
aS'45'
p7287
aa(lp7288
I443
aS'46'
p7289
aa(lp7290
I443
aS'47'
p7291
aa(lp7292
I443
aS'48'
p7293
aa(lp7294
I443
aS'49'
p7295
aa(lp7296
I443
aS'50'
p7297
aa(lp7298
I443
aS'51'
p7299
aa(lp7300
I443
aS'52'
p7301
aa(lp7302
I443
aS'53'
p7303
aa(lp7304
I443
aS'54'
p7305
aa(lp7306
I444
aS'55'
p7307
aa(lp7308
I444
aS'56'
p7309
aa(lp7310
I444
aS'57'
p7311
aa(lp7312
I444
aS'58'
p7313
aa(lp7314
I444
aS'59'
p7315
aa(lp7316
I444
aS'60'
p7317
aa(lp7318
I444
aS'61'
p7319
aa(lp7320
I444
aS'62'
p7321
aa(lp7322
I444
aS'63'
p7323
aa(lp7324
I444
aS'64'
p7325
aa(lp7326
I444
aS'65'
p7327
aa(lp7328
I444
aS'66'
p7329
aa(lp7330
I444
aS'67'
p7331
aa(lp7332
I444
aS'68'
p7333
aa(lp7334
I444
aS'69'
p7335
aa(lp7336
I444
aS'70'
p7337
aa(lp7338
I445
aS'71'
p7339
aa(lp7340
I445
aS'72'
p7341
aa(lp7342
I445
aS'73'
p7343
aa(lp7344
I445
aS'74'
p7345
aa(lp7346
I445
aS'75'
p7347
aa(lp7348
I445
aS'76'
p7349
aa(lp7350
I445
aS'77'
p7351
aa(lp7352
I445
aS'78'
p7353
aa(lp7354
I445
aS'79'
p7355
aa(lp7356
I445
aS'80'
p7357
aa(lp7358
I445
aS'81'
p7359
aa(lp7360
I445
aS'82'
p7361
aa(lp7362
I445
aS'83'
p7363
aaa(lp7364
(lp7365
I446
aV\u0627\u0644\u0635\u0627\u0641\u0627\u062a
p7366
aa(lp7367
I446
aS'1'
aa(lp7368
I446
aS'2'
aa(lp7369
I446
aS'3'
aa(lp7370
I446
aS'4'
aa(lp7371
I446
aS'5'
aa(lp7372
I446
aS'6'
aa(lp7373
I446
aS'7'
aa(lp7374
I446
aS'8'
aa(lp7375
I446
aS'9'
aa(lp7376
I446
aS'10'
p7377
aa(lp7378
I446
aS'11'
p7379
aa(lp7380
I446
aS'12'
p7381
aa(lp7382
I446
aS'13'
p7383
aa(lp7384
I446
aS'14'
p7385
aa(lp7386
I446
aS'15'
p7387
aa(lp7388
I446
aS'16'
p7389
aa(lp7390
I446
aS'17'
p7391
aa(lp7392
I446
aS'18'
p7393
aa(lp7394
I446
aS'19'
p7395
aa(lp7396
I446
aS'20'
p7397
aa(lp7398
I446
aS'21'
p7399
aa(lp7400
I446
aS'22'
p7401
aa(lp7402
I446
aS'23'
p7403
aa(lp7404
I446
aS'24'
p7405
aa(lp7406
I447
aS'25'
p7407
aa(lp7408
I447
aS'26'
p7409
aa(lp7410
I447
aS'27'
p7411
aa(lp7412
I447
aS'28'
p7413
aa(lp7414
I447
aS'29'
p7415
aa(lp7416
I447
aS'30'
p7417
aa(lp7418
I447
aS'31'
p7419
aa(lp7420
I447
aS'32'
p7421
aa(lp7422
I447
aS'33'
p7423
aa(lp7424
I447
aS'34'
p7425
aa(lp7426
I447
aS'35'
p7427
aa(lp7428
I447
aS'36'
p7429
aa(lp7430
I447
aS'37'
p7431
aa(lp7432
I447
aS'38'
p7433
aa(lp7434
I447
aS'39'
p7435
aa(lp7436
I447
aS'40'
p7437
aa(lp7438
I447
aS'41'
p7439
aa(lp7440
I447
aS'42'
p7441
aa(lp7442
I447
aS'43'
p7443
aa(lp7444
I447
aS'44'
p7445
aa(lp7446
I447
aS'45'
p7447
aa(lp7448
I447
aS'46'
p7449
aa(lp7450
I447
aS'47'
p7451
aa(lp7452
I447
aS'48'
p7453
aa(lp7454
I447
aS'49'
p7455
aa(lp7456
I447
aS'50'
p7457
aa(lp7458
I447
aS'51'
p7459
aa(lp7460
I448
aS'52'
p7461
aa(lp7462
I448
aS'53'
p7463
aa(lp7464
I448
aS'54'
p7465
aa(lp7466
I448
aS'55'
p7467
aa(lp7468
I448
aS'56'
p7469
aa(lp7470
I448
aS'57'
p7471
aa(lp7472
I448
aS'58'
p7473
aa(lp7474
I448
aS'59'
p7475
aa(lp7476
I448
aS'60'
p7477
aa(lp7478
I448
aS'61'
p7479
aa(lp7480
I448
aS'62'
p7481
aa(lp7482
I448
aS'63'
p7483
aa(lp7484
I448
aS'64'
p7485
aa(lp7486
I448
aS'65'
p7487
aa(lp7488
I448
aS'66'
p7489
aa(lp7490
I448
aS'67'
p7491
aa(lp7492
I448
aS'68'
p7493
aa(lp7494
I448
aS'69'
p7495
aa(lp7496
I448
aS'70'
p7497
aa(lp7498
I448
aS'71'
p7499
aa(lp7500
I448
aS'72'
p7501
aa(lp7502
I448
aS'73'
p7503
aa(lp7504
I448
aS'74'
p7505
aa(lp7506
I448
aS'75'
p7507
aa(lp7508
I448
aS'76'
p7509
aa(lp7510
I449
aS'77'
p7511
aa(lp7512
I449
aS'78'
p7513
aa(lp7514
I449
aS'79'
p7515
aa(lp7516
I449
aS'80'
p7517
aa(lp7518
I449
aS'81'
p7519
aa(lp7520
I449
aS'82'
p7521
aa(lp7522
I449
aS'83'
p7523
aa(lp7524
I449
aS'84'
p7525
aa(lp7526
I449
aS'85'
p7527
aa(lp7528
I449
aS'86'
p7529
aa(lp7530
I449
aS'87'
p7531
aa(lp7532
I449
aS'88'
p7533
aa(lp7534
I449
aS'89'
p7535
aa(lp7536
I449
aS'90'
p7537
aa(lp7538
I449
aS'91'
p7539
aa(lp7540
I449
aS'92'
p7541
aa(lp7542
I449
aS'93'
p7543
aa(lp7544
I449
aS'94'
p7545
aa(lp7546
I449
aS'95'
p7547
aa(lp7548
I449
aS'96'
p7549
aa(lp7550
I449
aS'97'
p7551
aa(lp7552
I449
aS'98'
p7553
aa(lp7554
I449
aS'99'
p7555
aa(lp7556
I449
aS'100'
p7557
aa(lp7558
I449
aS'101'
p7559
aa(lp7560
I449
aS'102'
p7561
aa(lp7562
I450
aS'103'
p7563
aa(lp7564
I450
aS'104'
p7565
aa(lp7566
I450
aS'105'
p7567
aa(lp7568
I450
aS'106'
p7569
aa(lp7570
I450
aS'107'
p7571
aa(lp7572
I450
aS'108'
p7573
aa(lp7574
I450
aS'109'
p7575
aa(lp7576
I450
aS'110'
p7577
aa(lp7578
I450
aS'111'
p7579
aa(lp7580
I450
aS'112'
p7581
aa(lp7582
I450
aS'113'
p7583
aa(lp7584
I450
aS'114'
p7585
aa(lp7586
I450
aS'115'
p7587
aa(lp7588
I450
aS'116'
p7589
aa(lp7590
I450
aS'117'
p7591
aa(lp7592
I450
aS'118'
p7593
aa(lp7594
I450
aS'119'
p7595
aa(lp7596
I450
aS'120'
p7597
aa(lp7598
I450
aS'121'
p7599
aa(lp7600
I450
aS'122'
p7601
aa(lp7602
I450
aS'123'
p7603
aa(lp7604
I450
aS'124'
p7605
aa(lp7606
I450
aS'125'
p7607
aa(lp7608
I450
aS'126'
p7609
aa(lp7610
I451
aS'127'
p7611
aa(lp7612
I451
aS'128'
p7613
aa(lp7614
I451
aS'129'
p7615
aa(lp7616
I451
aS'130'
p7617
aa(lp7618
I451
aS'131'
p7619
aa(lp7620
I451
aS'132'
p7621
aa(lp7622
I451
aS'133'
p7623
aa(lp7624
I451
aS'134'
p7625
aa(lp7626
I451
aS'135'
p7627
aa(lp7628
I451
aS'136'
p7629
aa(lp7630
I451
aS'137'
p7631
aa(lp7632
I451
aS'138'
p7633
aa(lp7634
I451
aS'139'
p7635
aa(lp7636
I451
aS'140'
p7637
aa(lp7638
I451
aS'141'
p7639
aa(lp7640
I451
aS'142'
p7641
aa(lp7642
I451
aS'143'
p7643
aa(lp7644
I451
aS'144'
p7645
aa(lp7646
I451
aS'145'
p7647
aa(lp7648
I451
aS'146'
p7649
aa(lp7650
I451
aS'147'
p7651
aa(lp7652
I451
aS'148'
p7653
aa(lp7654
I451
aS'149'
p7655
aa(lp7656
I451
aS'150'
p7657
aa(lp7658
I451
aS'151'
p7659
aa(lp7660
I451
aS'152'
p7661
aa(lp7662
I451
aS'153'
p7663
aa(lp7664
I452
aS'154'
p7665
aa(lp7666
I452
aS'155'
p7667
aa(lp7668
I452
aS'156'
p7669
aa(lp7670
I452
aS'157'
p7671
aa(lp7672
I452
aS'158'
p7673
aa(lp7674
I452
aS'159'
p7675
aa(lp7676
I452
aS'160'
p7677
aa(lp7678
I452
aS'161'
p7679
aa(lp7680
I452
aS'162'
p7681
aa(lp7682
I452
aS'163'
p7683
aa(lp7684
I452
aS'164'
p7685
aa(lp7686
I452
aS'165'
p7687
aa(lp7688
I452
aS'166'
p7689
aa(lp7690
I452
aS'167'
p7691
aa(lp7692
I452
aS'168'
p7693
aa(lp7694
I452
aS'169'
p7695
aa(lp7696
I452
aS'170'
p7697
aa(lp7698
I452
aS'171'
p7699
aa(lp7700
I452
aS'172'
p7701
aa(lp7702
I452
aS'173'
p7703
aa(lp7704
I452
aS'174'
p7705
aa(lp7706
I452
aS'175'
p7707
aa(lp7708
I452
aS'176'
p7709
aa(lp7710
I452
aS'177'
p7711
aa(lp7712
I452
aS'178'
p7713
aa(lp7714
I452
aS'179'
p7715
aa(lp7716
I452
aS'180'
p7717
aa(lp7718
I452
aS'181'
p7719
aa(lp7720
I452
aS'182'
p7721
aaa(lp7722
(lp7723
I453
aV\u0635
aa(lp7724
I453
aS'1'
aa(lp7725
I453
aS'2'
aa(lp7726
I453
aS'3'
aa(lp7727
I453
aS'4'
aa(lp7728
I453
aS'5'
aa(lp7729
I453
aS'6'
aa(lp7730
I453
aS'7'
aa(lp7731
I453
aS'8'
aa(lp7732
I453
aS'9'
aa(lp7733
I453
aS'10'
p7734
aa(lp7735
I453
aS'11'
p7736
aa(lp7737
I453
aS'12'
p7738
aa(lp7739
I453
aS'13'
p7740
aa(lp7741
I453
aS'14'
p7742
aa(lp7743
I453
aS'15'
p7744
aa(lp7745
I453
aS'16'
p7746
aa(lp7747
I454
aS'17'
p7748
aa(lp7749
I454
aS'18'
p7750
aa(lp7751
I454
aS'19'
p7752
aa(lp7753
I454
aS'20'
p7754
aa(lp7755
I454
aS'21'
p7756
aa(lp7757
I454
aS'22'
p7758
aa(lp7759
I454
aS'23'
p7760
aa(lp7761
I454
aS'24'
p7762
aa(lp7763
I454
aS'25'
p7764
aa(lp7765
I454
aS'26'
p7766
aa(lp7767
I455
aS'27'
p7768
aa(lp7769
I455
aS'28'
p7770
aa(lp7771
I455
aS'29'
p7772
aa(lp7773
I455
aS'30'
p7774
aa(lp7775
I455
aS'31'
p7776
aa(lp7777
I455
aS'32'
p7778
aa(lp7779
I455
aS'33'
p7780
aa(lp7781
I455
aS'34'
p7782
aa(lp7783
I455
aS'35'
p7784
aa(lp7785
I455
aS'36'
p7786
aa(lp7787
I455
aS'37'
p7788
aa(lp7789
I455
aS'38'
p7790
aa(lp7791
I455
aS'39'
p7792
aa(lp7793
I455
aS'40'
p7794
aa(lp7795
I455
aS'41'
p7796
aa(lp7797
I455
aS'42'
p7798
aa(lp7799
I456
aS'43'
p7800
aa(lp7801
I456
aS'44'
p7802
aa(lp7803
I456
aS'45'
p7804
aa(lp7805
I456
aS'46'
p7806
aa(lp7807
I456
aS'47'
p7808
aa(lp7809
I456
aS'48'
p7810
aa(lp7811
I456
aS'49'
p7812
aa(lp7813
I456
aS'50'
p7814
aa(lp7815
I456
aS'51'
p7816
aa(lp7817
I456
aS'52'
p7818
aa(lp7819
I456
aS'53'
p7820
aa(lp7821
I456
aS'54'
p7822
aa(lp7823
I456
aS'55'
p7824
aa(lp7825
I456
aS'56'
p7826
aa(lp7827
I456
aS'57'
p7828
aa(lp7829
I456
aS'58'
p7830
aa(lp7831
I456
aS'59'
p7832
aa(lp7833
I456
aS'60'
p7834
aa(lp7835
I456
aS'61'
p7836
aa(lp7837
I457
aS'62'
p7838
aa(lp7839
I457
aS'63'
p7840
aa(lp7841
I457
aS'64'
p7842
aa(lp7843
I457
aS'65'
p7844
aa(lp7845
I457
aS'66'
p7846
aa(lp7847
I457
aS'67'
p7848
aa(lp7849
I457
aS'68'
p7850
aa(lp7851
I457
aS'69'
p7852
aa(lp7853
I457
aS'70'
p7854
aa(lp7855
I457
aS'71'
p7856
aa(lp7857
I457
aS'72'
p7858
aa(lp7859
I457
aS'73'
p7860
aa(lp7861
I457
aS'74'
p7862
aa(lp7863
I457
aS'75'
p7864
aa(lp7865
I457
aS'76'
p7866
aa(lp7867
I457
aS'77'
p7868
aa(lp7869
I457
aS'78'
p7870
aa(lp7871
I457
aS'79'
p7872
aa(lp7873
I457
aS'80'
p7874
aa(lp7875
I457
aS'81'
p7876
aa(lp7877
I457
aS'82'
p7878
aa(lp7879
I457
aS'83'
p7880
aa(lp7881
I458
aS'84'
p7882
aa(lp7883
I458
aS'85'
p7884
aa(lp7885
I458
aS'86'
p7886
aa(lp7887
I458
aS'87'
p7888
aa(lp7889
I458
aS'88'
p7890
aaa(lp7891
(lp7892
I458
aV\u0627\u0644\u0632\u0645\u0631
p7893
aa(lp7894
I458
aS'1'
aa(lp7895
I458
aS'2'
aa(lp7896
I458
aS'3'
aa(lp7897
I458
aS'4'
aa(lp7898
I458
aS'5'
aa(lp7899
I459
aS'6'
aa(lp7900
I459
aS'7'
aa(lp7901
I459
aS'8'
aa(lp7902
I459
aS'9'
aa(lp7903
I459
aS'10'
p7904
aa(lp7905
I460
aS'11'
p7906
aa(lp7907
I460
aS'12'
p7908
aa(lp7909
I460
aS'13'
p7910
aa(lp7911
I460
aS'14'
p7912
aa(lp7913
I460
aS'15'
p7914
aa(lp7915
I460
aS'16'
p7916
aa(lp7917
I460
aS'17'
p7918
aa(lp7919
I460
aS'18'
p7920
aa(lp7921
I460
aS'19'
p7922
aa(lp7923
I460
aS'20'
p7924
aa(lp7925
I460
aS'21'
p7926
aa(lp7927
I461
aS'22'
p7928
aa(lp7929
I461
aS'23'
p7930
aa(lp7931
I461
aS'24'
p7932
aa(lp7933
I461
aS'25'
p7934
aa(lp7935
I461
aS'26'
p7936
aa(lp7937
I461
aS'27'
p7938
aa(lp7939
I461
aS'28'
p7940
aa(lp7941
I461
aS'29'
p7942
aa(lp7943
I461
aS'30'
p7944
aa(lp7945
I461
aS'31'
p7946
aa(lp7947
I462
aS'32'
p7948
aa(lp7949
I462
aS'33'
p7950
aa(lp7951
I462
aS'34'
p7952
aa(lp7953
I462
aS'35'
p7954
aa(lp7955
I462
aS'36'
p7956
aa(lp7957
I462
aS'37'
p7958
aa(lp7959
I462
aS'38'
p7960
aa(lp7961
I462
aS'39'
p7962
aa(lp7963
I462
aS'40'
p7964
aa(lp7965
I463
aS'41'
p7966
aa(lp7967
I463
aS'42'
p7968
aa(lp7969
I463
aS'43'
p7970
aa(lp7971
I463
aS'44'
p7972
aa(lp7973
I463
aS'45'
p7974
aa(lp7975
I463
aS'46'
p7976
aa(lp7977
I463
aS'47'
p7978
aa(lp7979
I464
aS'48'
p7980
aa(lp7981
I464
aS'49'
p7982
aa(lp7983
I464
aS'50'
p7984
aa(lp7985
I464
aS'51'
p7986
aa(lp7987
I464
aS'52'
p7988
aa(lp7989
I464
aS'53'
p7990
aa(lp7991
I464
aS'54'
p7992
aa(lp7993
I464
aS'55'
p7994
aa(lp7995
I464
aS'56'
p7996
aa(lp7997
I465
aS'57'
p7998
aa(lp7999
I465
aS'58'
p8000
aa(lp8001
I465
aS'59'
p8002
aa(lp8003
I465
aS'60'
p8004
aa(lp8005
I465
aS'61'
p8006
aa(lp8007
I465
aS'62'
p8008
aa(lp8009
I465
aS'63'
p8010
aa(lp8011
I465
aS'64'
p8012
aa(lp8013
I465
aS'65'
p8014
aa(lp8015
I465
aS'66'
p8016
aa(lp8017
I465
aS'67'
p8018
aa(lp8019
I466
aS'68'
p8020
aa(lp8021
I466
aS'69'
p8022
aa(lp8023
I466
aS'70'
p8024
aa(lp8025
I466
aS'71'
p8026
aa(lp8027
I466
aS'72'
p8028
aa(lp8029
I466
aS'73'
p8030
aa(lp8031
I466
aS'74'
p8032
aa(lp8033
I467
aS'75'
p8034
aaa(lp8035
(lp8036
I467
aV\u063a\u0627\u0641\u0631
p8037
aa(lp8038
I467
aS'1'
aa(lp8039
I467
aS'2'
aa(lp8040
I467
aS'3'
aa(lp8041
I467
aS'4'
aa(lp8042
I467
aS'5'
aa(lp8043
I467
aS'6'
aa(lp8044
I467
aS'7'
aa(lp8045
I468
aS'8'
aa(lp8046
I468
aS'9'
aa(lp8047
I468
aS'10'
p8048
aa(lp8049
I468
aS'11'
p8050
aa(lp8051
I468
aS'12'
p8052
aa(lp8053
I468
aS'13'
p8054
aa(lp8055
I468
aS'14'
p8056
aa(lp8057
I468
aS'15'
p8058
aa(lp8059
I468
aS'16'
p8060
aa(lp8061
I469
aS'17'
p8062
aa(lp8063
I469
aS'18'
p8064
aa(lp8065
I469
aS'19'
p8066
aa(lp8067
I469
aS'20'
p8068
aa(lp8069
I469
aS'21'
p8070
aa(lp8071
I469
aS'22'
p8072
aa(lp8073
I469
aS'23'
p8074
aa(lp8075
I469
aS'24'
p8076
aa(lp8077
I469
aS'25'
p8078
aa(lp8079
I470
aS'26'
p8080
aa(lp8081
I470
aS'27'
p8082
aa(lp8083
I470
aS'28'
p8084
aa(lp8085
I470
aS'29'
p8086
aa(lp8087
I470
aS'30'
p8088
aa(lp8089
I470
aS'31'
p8090
aa(lp8091
I470
aS'32'
p8092
aa(lp8093
I470
aS'33'
p8094
aa(lp8095
I471
aS'34'
p8096
aa(lp8097
I471
aS'35'
p8098
aa(lp8099
I471
aS'36'
p8100
aa(lp8101
I471
aS'37'
p8102
aa(lp8103
I471
aS'38'
p8104
aa(lp8105
I471
aS'39'
p8106
aa(lp8107
I471
aS'40'
p8108
aa(lp8109
I472
aS'41'
p8110
aa(lp8111
I472
aS'42'
p8112
aa(lp8113
I472
aS'43'
p8114
aa(lp8115
I472
aS'44'
p8116
aa(lp8117
I472
aS'45'
p8118
aa(lp8119
I472
aS'46'
p8120
aa(lp8121
I472
aS'47'
p8122
aa(lp8123
I472
aS'48'
p8124
aa(lp8125
I472
aS'49'
p8126
aa(lp8127
I473
aS'50'
p8128
aa(lp8129
I473
aS'51'
p8130
aa(lp8131
I473
aS'52'
p8132
aa(lp8133
I473
aS'53'
p8134
aa(lp8135
I473
aS'54'
p8136
aa(lp8137
I473
aS'55'
p8138
aa(lp8139
I473
aS'56'
p8140
aa(lp8141
I473
aS'57'
p8142
aa(lp8143
I473
aS'58'
p8144
aa(lp8145
I474
aS'59'
p8146
aa(lp8147
I474
aS'60'
p8148
aa(lp8149
I474
aS'61'
p8150
aa(lp8151
I474
aS'62'
p8152
aa(lp8153
I474
aS'63'
p8154
aa(lp8155
I474
aS'64'
p8156
aa(lp8157
I474
aS'65'
p8158
aa(lp8159
I474
aS'66'
p8160
aa(lp8161
I475
aS'67'
p8162
aa(lp8163
I475
aS'68'
p8164
aa(lp8165
I475
aS'69'
p8166
aa(lp8167
I475
aS'70'
p8168
aa(lp8169
I475
aS'71'
p8170
aa(lp8171
I475
aS'72'
p8172
aa(lp8173
I475
aS'73'
p8174
aa(lp8175
I475
aS'74'
p8176
aa(lp8177
I475
aS'75'
p8178
aa(lp8179
I475
aS'76'
p8180
aa(lp8181
I475
aS'77'
p8182
aa(lp8183
I476
aS'78'
p8184
aa(lp8185
I476
aS'79'
p8186
aa(lp8187
I476
aS'80'
p8188
aa(lp8189
I476
aS'81'
p8190
aa(lp8191
I476
aS'82'
p8192
aa(lp8193
I476
aS'83'
p8194
aa(lp8195
I476
aS'84'
p8196
aa(lp8197
I476
aS'85'
p8198
aaa(lp8199
(lp8200
I477
aV\u0641\u0635\u0644\u062a
p8201
aa(lp8202
I477
aS'1'
aa(lp8203
I477
aS'2'
aa(lp8204
I477
aS'3'
aa(lp8205
I477
aS'4'
aa(lp8206
I477
aS'5'
aa(lp8207
I477
aS'6'
aa(lp8208
I477
aS'7'
aa(lp8209
I477
aS'8'
aa(lp8210
I477
aS'9'
aa(lp8211
I477
aS'10'
p8212
aa(lp8213
I477
aS'11'
p8214
aa(lp8215
I478
aS'12'
p8216
aa(lp8217
I478
aS'13'
p8218
aa(lp8219
I478
aS'14'
p8220
aa(lp8221
I478
aS'15'
p8222
aa(lp8223
I478
aS'16'
p8224
aa(lp8225
I478
aS'17'
p8226
aa(lp8227
I478
aS'18'
p8228
aa(lp8229
I478
aS'19'
p8230
aa(lp8231
I478
aS'20'
p8232
aa(lp8233
I479
aS'21'
p8234
aa(lp8235
I479
aS'22'
p8236
aa(lp8237
I479
aS'23'
p8238
aa(lp8239
I479
aS'24'
p8240
aa(lp8241
I479
aS'25'
p8242
aa(lp8243
I479
aS'26'
p8244
aa(lp8245
I479
aS'27'
p8246
aa(lp8247
I479
aS'28'
p8248
aa(lp8249
I479
aS'29'
p8250
aa(lp8251
I480
aS'30'
p8252
aa(lp8253
I480
aS'31'
p8254
aa(lp8255
I480
aS'32'
p8256
aa(lp8257
I480
aS'33'
p8258
aa(lp8259
I480
aS'34'
p8260
aa(lp8261
I480
aS'35'
p8262
aa(lp8263
I480
aS'36'
p8264
aa(lp8265
I480
aS'37'
p8266
aa(lp8267
I480
aS'38'
p8268
aa(lp8269
I481
aS'39'
p8270
aa(lp8271
I481
aS'40'
p8272
aa(lp8273
I481
aS'41'
p8274
aa(lp8275
I481
aS'42'
p8276
aa(lp8277
I481
aS'43'
p8278
aa(lp8279
I481
aS'44'
p8280
aa(lp8281
I481
aS'45'
p8282
aa(lp8283
I481
aS'46'
p8284
aa(lp8285
I482
aS'47'
p8286
aa(lp8287
I482
aS'48'
p8288
aa(lp8289
I482
aS'49'
p8290
aa(lp8291
I482
aS'50'
p8292
aa(lp8293
I482
aS'51'
p8294
aa(lp8295
I482
aS'52'
p8296
aa(lp8297
I482
aS'53'
p8298
aa(lp8299
I482
aS'54'
p8300
aaa(lp8301
(lp8302
I483
aV\u0627\u0644\u0634\u0648\u0631\u0649
p8303
aa(lp8304
I483
aS'1'
aa(lp8305
I483
aS'2'
aa(lp8306
I483
aS'3'
aa(lp8307
I483
aS'4'
aa(lp8308
I483
aS'5'
aa(lp8309
I483
aS'6'
aa(lp8310
I483
aS'7'
aa(lp8311
I483
aS'8'
aa(lp8312
I483
aS'9'
aa(lp8313
I483
aS'10'
p8314
aa(lp8315
I484
aS'11'
p8316
aa(lp8317
I484
aS'12'
p8318
aa(lp8319
I484
aS'13'
p8320
aa(lp8321
I484
aS'14'
p8322
aa(lp8323
I484
aS'15'
p8324
aa(lp8325
I485
aS'16'
p8326
aa(lp8327
I485
aS'17'
p8328
aa(lp8329
I485
aS'18'
p8330
aa(lp8331
I485
aS'19'
p8332
aa(lp8333
I485
aS'20'
p8334
aa(lp8335
I485
aS'21'
p8336
aa(lp8337
I485
aS'22'
p8338
aa(lp8339
I486
aS'23'
p8340
aa(lp8341
I486
aS'24'
p8342
aa(lp8343
I486
aS'25'
p8344
aa(lp8345
I486
aS'26'
p8346
aa(lp8347
I486
aS'27'
p8348
aa(lp8349
I486
aS'28'
p8350
aa(lp8351
I486
aS'29'
p8352
aa(lp8353
I486
aS'30'
p8354
aa(lp8355
I486
aS'31'
p8356
aa(lp8357
I487
aS'32'
p8358
aa(lp8359
I487
aS'33'
p8360
aa(lp8361
I487
aS'34'
p8362
aa(lp8363
I487
aS'35'
p8364
aa(lp8365
I487
aS'36'
p8366
aa(lp8367
I487
aS'37'
p8368
aa(lp8369
I487
aS'38'
p8370
aa(lp8371
I487
aS'39'
p8372
aa(lp8373
I487
aS'40'
p8374
aa(lp8375
I487
aS'41'
p8376
aa(lp8377
I487
aS'42'
p8378
aa(lp8379
I487
aS'43'
p8380
aa(lp8381
I487
aS'44'
p8382
aa(lp8383
I488
aS'45'
p8384
aa(lp8385
I488
aS'46'
p8386
aa(lp8387
I488
aS'47'
p8388
aa(lp8389
I488
aS'48'
p8390
aa(lp8391
I488
aS'49'
p8392
aa(lp8393
I488
aS'50'
p8394
aa(lp8395
I488
aS'51'
p8396
aa(lp8397
I489
aS'52'
p8398
aa(lp8399
I489
aS'53'
p8400
aaa(lp8401
(lp8402
I489
aV\u0627\u0644\u0632\u062e\u0631\u0641
p8403
aa(lp8404
I489
aS'1'
aa(lp8405
I489
aS'2'
aa(lp8406
I489
aS'3'
aa(lp8407
I489
aS'4'
aa(lp8408
I489
aS'5'
aa(lp8409
I489
aS'6'
aa(lp8410
I489
aS'7'
aa(lp8411
I489
aS'8'
aa(lp8412
I489
aS'9'
aa(lp8413
I489
aS'10'
p8414
aa(lp8415
I490
aS'11'
p8416
aa(lp8417
I490
aS'12'
p8418
aa(lp8419
I490
aS'13'
p8420
aa(lp8421
I490
aS'14'
p8422
aa(lp8423
I490
aS'15'
p8424
aa(lp8425
I490
aS'16'
p8426
aa(lp8427
I490
aS'17'
p8428
aa(lp8429
I490
aS'18'
p8430
aa(lp8431
I490
aS'19'
p8432
aa(lp8433
I490
aS'20'
p8434
aa(lp8435
I490
aS'21'
p8436
aa(lp8437
I490
aS'22'
p8438
aa(lp8439
I491
aS'23'
p8440
aa(lp8441
I491
aS'24'
p8442
aa(lp8443
I491
aS'25'
p8444
aa(lp8445
I491
aS'26'
p8446
aa(lp8447
I491
aS'27'
p8448
aa(lp8449
I491
aS'28'
p8450
aa(lp8451
I491
aS'29'
p8452
aa(lp8453
I491
aS'30'
p8454
aa(lp8455
I491
aS'31'
p8456
aa(lp8457
I491
aS'32'
p8458
aa(lp8459
I491
aS'33'
p8460
aa(lp8461
I492
aS'34'
p8462
aa(lp8463
I492
aS'35'
p8464
aa(lp8465
I492
aS'36'
p8466
aa(lp8467
I492
aS'37'
p8468
aa(lp8469
I492
aS'38'
p8470
aa(lp8471
I492
aS'39'
p8472
aa(lp8473
I492
aS'40'
p8474
aa(lp8475
I492
aS'41'
p8476
aa(lp8477
I492
aS'42'
p8478
aa(lp8479
I492
aS'43'
p8480
aa(lp8481
I492
aS'44'
p8482
aa(lp8483
I492
aS'45'
p8484
aa(lp8485
I492
aS'46'
p8486
aa(lp8487
I492
aS'47'
p8488
aa(lp8489
I493
aS'48'
p8490
aa(lp8491
I493
aS'49'
p8492
aa(lp8493
I493
aS'50'
p8494
aa(lp8495
I493
aS'51'
p8496
aa(lp8497
I493
aS'52'
p8498
aa(lp8499
I493
aS'53'
p8500
aa(lp8501
I493
aS'54'
p8502
aa(lp8503
I493
aS'55'
p8504
aa(lp8505
I493
aS'56'
p8506
aa(lp8507
I493
aS'57'
p8508
aa(lp8509
I493
aS'58'
p8510
aa(lp8511
I493
aS'59'
p8512
aa(lp8513
I493
aS'60'
p8514
aa(lp8515
I494
aS'61'
p8516
aa(lp8517
I494
aS'62'
p8518
aa(lp8519
I494
aS'63'
p8520
aa(lp8521
I494
aS'64'
p8522
aa(lp8523
I494
aS'65'
p8524
aa(lp8525
I494
aS'66'
p8526
aa(lp8527
I494
aS'67'
p8528
aa(lp8529
I494
aS'68'
p8530
aa(lp8531
I494
aS'69'
p8532
aa(lp8533
I494
aS'70'
p8534
aa(lp8535
I494
aS'71'
p8536
aa(lp8537
I494
aS'72'
p8538
aa(lp8539
I494
aS'73'
p8540
aa(lp8541
I495
aS'74'
p8542
aa(lp8543
I495
aS'75'
p8544
aa(lp8545
I495
aS'76'
p8546
aa(lp8547
I495
aS'77'
p8548
aa(lp8549
I495
aS'78'
p8550
aa(lp8551
I495
aS'79'
p8552
aa(lp8553
I495
aS'80'
p8554
aa(lp8555
I495
aS'81'
p8556
aa(lp8557
I495
aS'82'
p8558
aa(lp8559
I495
aS'83'
p8560
aa(lp8561
I495
aS'84'
p8562
aa(lp8563
I495
aS'85'
p8564
aa(lp8565
I495
aS'86'
p8566
aa(lp8567
I495
aS'87'
p8568
aa(lp8569
I495
aS'88'
p8570
aa(lp8571
I495
aS'89'
p8572
aaa(lp8573
(lp8574
I496
aV\u0627\u0644\u062f\u062e\u0627\u0646
p8575
aa(lp8576
I496
aS'1'
aa(lp8577
I496
aS'2'
aa(lp8578
I496
aS'3'
aa(lp8579
I496
aS'4'
aa(lp8580
I496
aS'5'
aa(lp8581
I496
aS'6'
aa(lp8582
I496
aS'7'
aa(lp8583
I496
aS'8'
aa(lp8584
I496
aS'9'
aa(lp8585
I496
aS'10'
p8586
aa(lp8587
I496
aS'11'
p8588
aa(lp8589
I496
aS'12'
p8590
aa(lp8591
I496
aS'13'
p8592
aa(lp8593
I496
aS'14'
p8594
aa(lp8595
I496
aS'15'
p8596
aa(lp8597
I496
aS'16'
p8598
aa(lp8599
I496
aS'17'
p8600
aa(lp8601
I496
aS'18'
p8602
aa(lp8603
I497
aS'19'
p8604
aa(lp8605
I497
aS'20'
p8606
aa(lp8607
I497
aS'21'
p8608
aa(lp8609
I497
aS'22'
p8610
aa(lp8611
I497
aS'23'
p8612
aa(lp8613
I497
aS'24'
p8614
aa(lp8615
I497
aS'25'
p8616
aa(lp8617
I497
aS'26'
p8618
aa(lp8619
I497
aS'27'
p8620
aa(lp8621
I497
aS'28'
p8622
aa(lp8623
I497
aS'29'
p8624
aa(lp8625
I497
aS'30'
p8626
aa(lp8627
I497
aS'31'
p8628
aa(lp8629
I497
aS'32'
p8630
aa(lp8631
I497
aS'33'
p8632
aa(lp8633
I497
aS'34'
p8634
aa(lp8635
I497
aS'35'
p8636
aa(lp8637
I497
aS'36'
p8638
aa(lp8639
I497
aS'37'
p8640
aa(lp8641
I497
aS'38'
p8642
aa(lp8643
I497
aS'39'
p8644
aa(lp8645
I498
aS'40'
p8646
aa(lp8647
I498
aS'41'
p8648
aa(lp8649
I498
aS'42'
p8650
aa(lp8651
I498
aS'43'
p8652
aa(lp8653
I498
aS'44'
p8654
aa(lp8655
I498
aS'45'
p8656
aa(lp8657
I498
aS'46'
p8658
aa(lp8659
I498
aS'47'
p8660
aa(lp8661
I498
aS'48'
p8662
aa(lp8663
I498
aS'49'
p8664
aa(lp8665
I498
aS'50'
p8666
aa(lp8667
I498
aS'51'
p8668
aa(lp8669
I498
aS'52'
p8670
aa(lp8671
I498
aS'53'
p8672
aa(lp8673
I498
aS'54'
p8674
aa(lp8675
I498
aS'55'
p8676
aa(lp8677
I498
aS'56'
p8678
aa(lp8679
I498
aS'57'
p8680
aa(lp8681
I498
aS'58'
p8682
aa(lp8683
I498
aS'59'
p8684
aaa(lp8685
(lp8686
I499
aV\u0627\u0644\u062c\u0627\u062b\u064a\u0629
p8687
aa(lp8688
I499
aS'1'
aa(lp8689
I499
aS'2'
aa(lp8690
I499
aS'3'
aa(lp8691
I499
aS'4'
aa(lp8692
I499
aS'5'
aa(lp8693
I499
aS'6'
aa(lp8694
I499
aS'7'
aa(lp8695
I499
aS'8'
aa(lp8696
I499
aS'9'
aa(lp8697
I499
aS'10'
p8698
aa(lp8699
I499
aS'11'
p8700
aa(lp8701
I499
aS'12'
p8702
aa(lp8703
I499
aS'13'
p8704
aa(lp8705
I500
aS'14'
p8706
aa(lp8707
I500
aS'15'
p8708
aa(lp8709
I500
aS'16'
p8710
aa(lp8711
I500
aS'17'
p8712
aa(lp8713
I500
aS'18'
p8714
aa(lp8715
I500
aS'19'
p8716
aa(lp8717
I500
aS'20'
p8718
aa(lp8719
I500
aS'21'
p8720
aa(lp8721
I500
aS'22'
p8722
aa(lp8723
I501
aS'23'
p8724
aa(lp8725
I501
aS'24'
p8726
aa(lp8727
I501
aS'25'
p8728
aa(lp8729
I501
aS'26'
p8730
aa(lp8731
I501
aS'27'
p8732
aa(lp8733
I501
aS'28'
p8734
aa(lp8735
I501
aS'29'
p8736
aa(lp8737
I501
aS'30'
p8738
aa(lp8739
I501
aS'31'
p8740
aa(lp8741
I501
aS'32'
p8742
aa(lp8743
I502
aS'33'
p8744
aa(lp8745
I502
aS'34'
p8746
aa(lp8747
I502
aS'35'
p8748
aa(lp8749
I502
aS'36'
p8750
aa(lp8751
I502
aS'37'
p8752
aaa(lp8753
(lp8754
I502
aV\u0627\u0644\u0623\u062d\u0642\u0627\u0641
p8755
aa(lp8756
I502
aS'1'
aa(lp8757
I502
aS'2'
aa(lp8758
I502
aS'3'
aa(lp8759
I502
aS'4'
aa(lp8760
I502
aS'5'
aa(lp8761
I503
aS'6'
aa(lp8762
I503
aS'7'
aa(lp8763
I503
aS'8'
aa(lp8764
I503
aS'9'
aa(lp8765
I503
aS'10'
p8766
aa(lp8767
I503
aS'11'
p8768
aa(lp8769
I503
aS'12'
p8770
aa(lp8771
I503
aS'13'
p8772
aa(lp8773
I503
aS'14'
p8774
aa(lp8775
I504
aS'15'
p8776
aa(lp8777
I504
aS'16'
p8778
aa(lp8779
I504
aS'17'
p8780
aa(lp8781
I504
aS'18'
p8782
aa(lp8783
I504
aS'19'
p8784
aa(lp8785
I504
aS'20'
p8786
aa(lp8787
I505
aS'21'
p8788
aa(lp8789
I505
aS'22'
p8790
aa(lp8791
I505
aS'23'
p8792
aa(lp8793
I505
aS'24'
p8794
aa(lp8795
I505
aS'25'
p8796
aa(lp8797
I505
aS'26'
p8798
aa(lp8799
I505
aS'27'
p8800
aa(lp8801
I505
aS'28'
p8802
aa(lp8803
I506
aS'29'
p8804
aa(lp8805
I506
aS'30'
p8806
aa(lp8807
I506
aS'31'
p8808
aa(lp8809
I506
aS'32'
p8810
aa(lp8811
I506
aS'33'
p8812
aa(lp8813
I506
aS'34'
p8814
aa(lp8815
I506
aS'35'
p8816
aaa(lp8817
(lp8818
I507
aV\u0645\u062d\u0645\u062f
p8819
aa(lp8820
I507
aS'1'
aa(lp8821
I507
aS'2'
aa(lp8822
I507
aS'3'
aa(lp8823
I507
aS'4'
aa(lp8824
I507
aS'5'
aa(lp8825
I507
aS'6'
aa(lp8826
I507
aS'7'
aa(lp8827
I507
aS'8'
aa(lp8828
I507
aS'9'
aa(lp8829
I507
aS'10'
p8830
aa(lp8831
I507
aS'11'
p8832
aa(lp8833
I508
aS'12'
p8834
aa(lp8835
I508
aS'13'
p8836
aa(lp8837
I508
aS'14'
p8838
aa(lp8839
I508
aS'15'
p8840
aa(lp8841
I508
aS'16'
p8842
aa(lp8843
I508
aS'17'
p8844
aa(lp8845
I508
aS'18'
p8846
aa(lp8847
I508
aS'19'
p8848
aa(lp8849
I509
aS'20'
p8850
aa(lp8851
I509
aS'21'
p8852
aa(lp8853
I509
aS'22'
p8854
aa(lp8855
I509
aS'23'
p8856
aa(lp8857
I509
aS'24'
p8858
aa(lp8859
I509
aS'25'
p8860
aa(lp8861
I509
aS'26'
p8862
aa(lp8863
I509
aS'27'
p8864
aa(lp8865
I509
aS'28'
p8866
aa(lp8867
I509
aS'29'
p8868
aa(lp8869
I510
aS'30'
p8870
aa(lp8871
I510
aS'31'
p8872
aa(lp8873
I510
aS'32'
p8874
aa(lp8875
I510
aS'33'
p8876
aa(lp8877
I510
aS'34'
p8878
aa(lp8879
I510
aS'35'
p8880
aa(lp8881
I510
aS'36'
p8882
aa(lp8883
I510
aS'37'
p8884
aa(lp8885
I510
aS'38'
p8886
aaa(lp8887
(lp8888
I511
aV\u0627\u0644\u0641\u062a\u062d
p8889
aa(lp8890
I511
aS'1'
aa(lp8891
I511
aS'2'
aa(lp8892
I511
aS'3'
aa(lp8893
I511
aS'4'
aa(lp8894
I511
aS'5'
aa(lp8895
I511
aS'6'
aa(lp8896
I511
aS'7'
aa(lp8897
I511
aS'8'
aa(lp8898
I511
aS'9'
aa(lp8899
I512
aS'10'
p8900
aa(lp8901
I512
aS'11'
p8902
aa(lp8903
I512
aS'12'
p8904
aa(lp8905
I512
aS'13'
p8906
aa(lp8907
I512
aS'14'
p8908
aa(lp8909
I512
aS'15'
p8910
aa(lp8911
I513
aS'16'
p8912
aa(lp8913
I513
aS'17'
p8914
aa(lp8915
I513
aS'18'
p8916
aa(lp8917
I513
aS'19'
p8918
aa(lp8919
I513
aS'20'
p8920
aa(lp8921
I513
aS'21'
p8922
aa(lp8923
I513
aS'22'
p8924
aa(lp8925
I513
aS'23'
p8926
aa(lp8927
I514
aS'24'
p8928
aa(lp8929
I514
aS'25'
p8930
aa(lp8931
I514
aS'26'
p8932
aa(lp8933
I514
aS'27'
p8934
aa(lp8935
I514
aS'28'
p8936
aa(lp8937
I515
aS'29'
p8938
aaa(lp8939
(lp8940
I515
aV\u0627\u0644\u062d\u062c\u0631\u0627\u062a
p8941
aa(lp8942
I515
aS'1'
aa(lp8943
I515
aS'2'
aa(lp8944
I515
aS'3'
aa(lp8945
I515
aS'4'
aa(lp8946
I516
aS'5'
aa(lp8947
I516
aS'6'
aa(lp8948
I516
aS'7'
aa(lp8949
I516
aS'8'
aa(lp8950
I516
aS'9'
aa(lp8951
I516
aS'10'
p8952
aa(lp8953
I516
aS'11'
p8954
aa(lp8955
I517
aS'12'
p8956
aa(lp8957
I517
aS'13'
p8958
aa(lp8959
I517
aS'14'
p8960
aa(lp8961
I517
aS'15'
p8962
aa(lp8963
I517
aS'16'
p8964
aa(lp8965
I517
aS'17'
p8966
aa(lp8967
I517
aS'18'
p8968
aaa(lp8969
(lp8970
I518
aV\u0642
aa(lp8971
I518
aS'1'
aa(lp8972
I518
aS'2'
aa(lp8973
I518
aS'3'
aa(lp8974
I518
aS'4'
aa(lp8975
I518
aS'5'
aa(lp8976
I518
aS'6'
aa(lp8977
I518
aS'7'
aa(lp8978
I518
aS'8'
aa(lp8979
I518
aS'9'
aa(lp8980
I518
aS'10'
p8981
aa(lp8982
I518
aS'11'
p8983
aa(lp8984
I518
aS'12'
p8985
aa(lp8986
I518
aS'13'
p8987
aa(lp8988
I518
aS'14'
p8989
aa(lp8990
I518
aS'15'
p8991
aa(lp8992
I519
aS'16'
p8993
aa(lp8994
I519
aS'17'
p8995
aa(lp8996
I519
aS'18'
p8997
aa(lp8998
I519
aS'19'
p8999
aa(lp9000
I519
aS'20'
p9001
aa(lp9002
I519
aS'21'
p9003
aa(lp9004
I519
aS'22'
p9005
aa(lp9006
I519
aS'23'
p9007
aa(lp9008
I519
aS'24'
p9009
aa(lp9010
I519
aS'25'
p9011
aa(lp9012
I519
aS'26'
p9013
aa(lp9014
I519
aS'27'
p9015
aa(lp9016
I519
aS'28'
p9017
aa(lp9018
I519
aS'29'
p9019
aa(lp9020
I519
aS'30'
p9021
aa(lp9022
I519
aS'31'
p9023
aa(lp9024
I519
aS'32'
p9025
aa(lp9026
I519
aS'33'
p9027
aa(lp9028
I519
aS'34'
p9029
aa(lp9030
I519
aS'35'
p9031
aa(lp9032
I520
aS'36'
p9033
aa(lp9034
I520
aS'37'
p9035
aa(lp9036
I520
aS'38'
p9037
aa(lp9038
I520
aS'39'
p9039
aa(lp9040
I520
aS'40'
p9041
aa(lp9042
I520
aS'41'
p9043
aa(lp9044
I520
aS'42'
p9045
aa(lp9046
I520
aS'43'
p9047
aa(lp9048
I520
aS'44'
p9049
aa(lp9050
I520
aS'45'
p9051
aaa(lp9052
(lp9053
I520
aV\u0627\u0644\u0630\u0627\u0631\u064a\u0627\u062a
p9054
aa(lp9055
I520
aS'1'
aa(lp9056
I520
aS'2'
aa(lp9057
I520
aS'3'
aa(lp9058
I520
aS'4'
aa(lp9059
I520
aS'5'
aa(lp9060
I520
aS'6'
aa(lp9061
I521
aS'7'
aa(lp9062
I521
aS'8'
aa(lp9063
I521
aS'9'
aa(lp9064
I521
aS'10'
p9065
aa(lp9066
I521
aS'11'
p9067
aa(lp9068
I521
aS'12'
p9069
aa(lp9070
I521
aS'13'
p9071
aa(lp9072
I521
aS'14'
p9073
aa(lp9074
I521
aS'15'
p9075
aa(lp9076
I521
aS'16'
p9077
aa(lp9078
I521
aS'17'
p9079
aa(lp9080
I521
aS'18'
p9081
aa(lp9082
I521
aS'19'
p9083
aa(lp9084
I521
aS'20'
p9085
aa(lp9086
I521
aS'21'
p9087
aa(lp9088
I521
aS'22'
p9089
aa(lp9090
I521
aS'23'
p9091
aa(lp9092
I521
aS'24'
p9093
aa(lp9094
I521
aS'25'
p9095
aa(lp9096
I521
aS'26'
p9097
aa(lp9098
I521
aS'27'
p9099
aa(lp9100
I521
aS'28'
p9101
aa(lp9102
I521
aS'29'
p9103
aa(lp9104
I521
aS'30'
p9105
aa(lp9106
I522
aS'31'
p9107
aa(lp9108
I522
aS'32'
p9109
aa(lp9110
I522
aS'33'
p9111
aa(lp9112
I522
aS'34'
p9113
aa(lp9114
I522
aS'35'
p9115
aa(lp9116
I522
aS'36'
p9117
aa(lp9118
I522
aS'37'
p9119
aa(lp9120
I522
aS'38'
p9121
aa(lp9122
I522
aS'39'
p9123
aa(lp9124
I522
aS'40'
p9125
aa(lp9126
I522
aS'41'
p9127
aa(lp9128
I522
aS'42'
p9129
aa(lp9130
I522
aS'43'
p9131
aa(lp9132
I522
aS'44'
p9133
aa(lp9134
I522
aS'45'
p9135
aa(lp9136
I522
aS'46'
p9137
aa(lp9138
I522
aS'47'
p9139
aa(lp9140
I522
aS'48'
p9141
aa(lp9142
I522
aS'49'
p9143
aa(lp9144
I522
aS'50'
p9145
aa(lp9146
I522
aS'51'
p9147
aa(lp9148
I523
aS'52'
p9149
aa(lp9150
I523
aS'53'
p9151
aa(lp9152
I523
aS'54'
p9153
aa(lp9154
I523
aS'55'
p9155
aa(lp9156
I523
aS'56'
p9157
aa(lp9158
I523
aS'57'
p9159
aa(lp9160
I523
aS'58'
p9161
aa(lp9162
I523
aS'59'
p9163
aa(lp9164
I523
aS'60'
p9165
aaa(lp9166
(lp9167
I523
aV\u0627\u0644\u0637\u0648\u0631
p9168
aa(lp9169
I523
aS'1'
aa(lp9170
I523
aS'2'
aa(lp9171
I523
aS'3'
aa(lp9172
I523
aS'4'
aa(lp9173
I523
aS'5'
aa(lp9174
I523
aS'6'
aa(lp9175
I523
aS'7'
aa(lp9176
I523
aS'8'
aa(lp9177
I523
aS'9'
aa(lp9178
I523
aS'10'
p9179
aa(lp9180
I523
aS'11'
p9181
aa(lp9182
I523
aS'12'
p9183
aa(lp9184
I523
aS'13'
p9185
aa(lp9186
I523
aS'14'
p9187
aa(lp9188
I524
aS'15'
p9189
aa(lp9190
I524
aS'16'
p9191
aa(lp9192
I524
aS'17'
p9193
aa(lp9194
I524
aS'18'
p9195
aa(lp9196
I524
aS'19'
p9197
aa(lp9198
I524
aS'20'
p9199
aa(lp9200
I524
aS'21'
p9201
aa(lp9202
I524
aS'22'
p9203
aa(lp9204
I524
aS'23'
p9205
aa(lp9206
I524
aS'24'
p9207
aa(lp9208
I524
aS'25'
p9209
aa(lp9210
I524
aS'26'
p9211
aa(lp9212
I524
aS'27'
p9213
aa(lp9214
I524
aS'28'
p9215
aa(lp9216
I524
aS'29'
p9217
aa(lp9218
I524
aS'30'
p9219
aa(lp9220
I524
aS'31'
p9221
aa(lp9222
I525
aS'32'
p9223
aa(lp9224
I525
aS'33'
p9225
aa(lp9226
I525
aS'34'
p9227
aa(lp9228
I525
aS'35'
p9229
aa(lp9230
I525
aS'36'
p9231
aa(lp9232
I525
aS'37'
p9233
aa(lp9234
I525
aS'38'
p9235
aa(lp9236
I525
aS'39'
p9237
aa(lp9238
I525
aS'40'
p9239
aa(lp9240
I525
aS'41'
p9241
aa(lp9242
I525
aS'42'
p9243
aa(lp9244
I525
aS'43'
p9245
aa(lp9246
I525
aS'44'
p9247
aa(lp9248
I525
aS'45'
p9249
aa(lp9250
I525
aS'46'
p9251
aa(lp9252
I525
aS'47'
p9253
aa(lp9254
I525
aS'48'
p9255
aa(lp9256
I525
aS'49'
p9257
aaa(lp9258
(lp9259
I526
aV\u0627\u0644\u0646\u062c\u0645
p9260
aa(lp9261
I526
aS'1'
aa(lp9262
I526
aS'2'
aa(lp9263
I526
aS'3'
aa(lp9264
I526
aS'4'
aa(lp9265
I526
aS'5'
aa(lp9266
I526
aS'6'
aa(lp9267
I526
aS'7'
aa(lp9268
I526
aS'8'
aa(lp9269
I526
aS'9'
aa(lp9270
I526
aS'10'
p9271
aa(lp9272
I526
aS'11'
p9273
aa(lp9274
I526
aS'12'
p9275
aa(lp9276
I526
aS'13'
p9277
aa(lp9278
I526
aS'14'
p9279
aa(lp9280
I526
aS'15'
p9281
aa(lp9282
I526
aS'16'
p9283
aa(lp9284
I526
aS'17'
p9285
aa(lp9286
I526
aS'18'
p9287
aa(lp9288
I526
aS'19'
p9289
aa(lp9290
I526
aS'20'
p9291
aa(lp9292
I526
aS'21'
p9293
aa(lp9294
I526
aS'22'
p9295
aa(lp9296
I526
aS'23'
p9297
aa(lp9298
I526
aS'24'
p9299
aa(lp9300
I526
aS'25'
p9301
aa(lp9302
I526
aS'26'
p9303
aa(lp9304
I527
aS'27'
p9305
aa(lp9306
I527
aS'28'
p9307
aa(lp9308
I527
aS'29'
p9309
aa(lp9310
I527
aS'30'
p9311
aa(lp9312
I527
aS'31'
p9313
aa(lp9314
I527
aS'32'
p9315
aa(lp9316
I527
aS'33'
p9317
aa(lp9318
I527
aS'34'
p9319
aa(lp9320
I527
aS'35'
p9321
aa(lp9322
I527
aS'36'
p9323
aa(lp9324
I527
aS'37'
p9325
aa(lp9326
I527
aS'38'
p9327
aa(lp9328
I527
aS'39'
p9329
aa(lp9330
I527
aS'40'
p9331
aa(lp9332
I527
aS'41'
p9333
aa(lp9334
I527
aS'42'
p9335
aa(lp9336
I527
aS'43'
p9337
aa(lp9338
I527
aS'44'
p9339
aa(lp9340
I528
aS'45'
p9341
aa(lp9342
I528
aS'46'
p9343
aa(lp9344
I528
aS'47'
p9345
aa(lp9346
I528
aS'48'
p9347
aa(lp9348
I528
aS'49'
p9349
aa(lp9350
I528
aS'50'
p9351
aa(lp9352
I528
aS'51'
p9353
aa(lp9354
I528
aS'52'
p9355
aa(lp9356
I528
aS'53'
p9357
aa(lp9358
I528
aS'54'
p9359
aa(lp9360
I528
aS'55'
p9361
aa(lp9362
I528
aS'56'
p9363
aa(lp9364
I528
aS'57'
p9365
aa(lp9366
I528
aS'58'
p9367
aa(lp9368
I528
aS'59'
p9369
aa(lp9370
I528
aS'60'
p9371
aa(lp9372
I528
aS'61'
p9373
aa(lp9374
I528
aS'62'
p9375
aaa(lp9376
(lp9377
I528
aV\u0627\u0644\u0642\u0645\u0631
p9378
aa(lp9379
I528
aS'1'
aa(lp9380
I528
aS'2'
aa(lp9381
I528
aS'3'
aa(lp9382
I528
aS'4'
aa(lp9383
I528
aS'5'
aa(lp9384
I528
aS'6'
aa(lp9385
I529
aS'7'
aa(lp9386
I529
aS'8'
aa(lp9387
I529
aS'9'
aa(lp9388
I529
aS'10'
p9389
aa(lp9390
I529
aS'11'
p9391
aa(lp9392
I529
aS'12'
p9393
aa(lp9394
I529
aS'13'
p9395
aa(lp9396
I529
aS'14'
p9397
aa(lp9398
I529
aS'15'
p9399
aa(lp9400
I529
aS'16'
p9401
aa(lp9402
I529
aS'17'
p9403
aa(lp9404
I529
aS'18'
p9405
aa(lp9406
I529
aS'19'
p9407
aa(lp9408
I529
aS'20'
p9409
aa(lp9410
I529
aS'21'
p9411
aa(lp9412
I529
aS'22'
p9413
aa(lp9414
I529
aS'23'
p9415
aa(lp9416
I529
aS'24'
p9417
aa(lp9418
I529
aS'25'
p9419
aa(lp9420
I529
aS'26'
p9421
aa(lp9422
I529
aS'27'
p9423
aa(lp9424
I530
aS'28'
p9425
aa(lp9426
I530
aS'29'
p9427
aa(lp9428
I530
aS'30'
p9429
aa(lp9430
I530
aS'31'
p9431
aa(lp9432
I530
aS'32'
p9433
aa(lp9434
I530
aS'33'
p9435
aa(lp9436
I530
aS'34'
p9437
aa(lp9438
I530
aS'35'
p9439
aa(lp9440
I530
aS'36'
p9441
aa(lp9442
I530
aS'37'
p9443
aa(lp9444
I530
aS'38'
p9445
aa(lp9446
I530
aS'39'
p9447
aa(lp9448
I530
aS'40'
p9449
aa(lp9450
I530
aS'41'
p9451
aa(lp9452
I530
aS'42'
p9453
aa(lp9454
I530
aS'43'
p9455
aa(lp9456
I530
aS'44'
p9457
aa(lp9458
I530
aS'45'
p9459
aa(lp9460
I530
aS'46'
p9461
aa(lp9462
I530
aS'47'
p9463
aa(lp9464
I530
aS'48'
p9465
aa(lp9466
I530
aS'49'
p9467
aa(lp9468
I531
aS'50'
p9469
aa(lp9470
I531
aS'51'
p9471
aa(lp9472
I531
aS'52'
p9473
aa(lp9474
I531
aS'53'
p9475
aa(lp9476
I531
aS'54'
p9477
aa(lp9478
I531
aS'55'
p9479
aaa(lp9480
(lp9481
I531
aV\u0627\u0644\u0631\u062d\u0645\u0646
p9482
aa(lp9483
I531
aS'1'
aa(lp9484
I531
aS'2'
aa(lp9485
I531
aS'3'
aa(lp9486
I531
aS'4'
aa(lp9487
I531
aS'5'
aa(lp9488
I531
aS'6'
aa(lp9489
I531
aS'7'
aa(lp9490
I531
aS'8'
aa(lp9491
I531
aS'9'
aa(lp9492
I531
aS'10'
p9493
aa(lp9494
I531
aS'11'
p9495
aa(lp9496
I531
aS'12'
p9497
aa(lp9498
I531
aS'13'
p9499
aa(lp9500
I531
aS'14'
p9501
aa(lp9502
I531
aS'15'
p9503
aa(lp9504
I531
aS'16'
p9505
aa(lp9506
I532
aS'17'
p9507
aa(lp9508
I532
aS'18'
p9509
aa(lp9510
I532
aS'19'
p9511
aa(lp9512
I532
aS'20'
p9513
aa(lp9514
I532
aS'21'
p9515
aa(lp9516
I532
aS'22'
p9517
aa(lp9518
I532
aS'23'
p9519
aa(lp9520
I532
aS'24'
p9521
aa(lp9522
I532
aS'25'
p9523
aa(lp9524
I532
aS'26'
p9525
aa(lp9526
I532
aS'27'
p9527
aa(lp9528
I532
aS'28'
p9529
aa(lp9530
I532
aS'29'
p9531
aa(lp9532
I532
aS'30'
p9533
aa(lp9534
I532
aS'31'
p9535
aa(lp9536
I532
aS'32'
p9537
aa(lp9538
I532
aS'33'
p9539
aa(lp9540
I532
aS'34'
p9541
aa(lp9542
I532
aS'35'
p9543
aa(lp9544
I532
aS'36'
p9545
aa(lp9546
I532
aS'37'
p9547
aa(lp9548
I532
aS'38'
p9549
aa(lp9550
I532
aS'39'
p9551
aa(lp9552
I532
aS'40'
p9553
aa(lp9554
I533
aS'41'
p9555
aa(lp9556
I533
aS'42'
p9557
aa(lp9558
I533
aS'43'
p9559
aa(lp9560
I533
aS'44'
p9561
aa(lp9562
I533
aS'45'
p9563
aa(lp9564
I533
aS'46'
p9565
aa(lp9566
I533
aS'47'
p9567
aa(lp9568
I533
aS'48'
p9569
aa(lp9570
I533
aS'49'
p9571
aa(lp9572
I533
aS'50'
p9573
aa(lp9574
I533
aS'51'
p9575
aa(lp9576
I533
aS'52'
p9577
aa(lp9578
I533
aS'53'
p9579
aa(lp9580
I533
aS'54'
p9581
aa(lp9582
I533
aS'55'
p9583
aa(lp9584
I533
aS'56'
p9585
aa(lp9586
I533
aS'57'
p9587
aa(lp9588
I533
aS'58'
p9589
aa(lp9590
I533
aS'59'
p9591
aa(lp9592
I533
aS'60'
p9593
aa(lp9594
I533
aS'61'
p9595
aa(lp9596
I533
aS'62'
p9597
aa(lp9598
I533
aS'63'
p9599
aa(lp9600
I533
aS'64'
p9601
aa(lp9602
I533
aS'65'
p9603
aa(lp9604
I533
aS'66'
p9605
aa(lp9606
I533
aS'67'
p9607
aa(lp9608
I534
aS'68'
p9609
aa(lp9610
I534
aS'69'
p9611
aa(lp9612
I534
aS'70'
p9613
aa(lp9614
I534
aS'71'
p9615
aa(lp9616
I534
aS'72'
p9617
aa(lp9618
I534
aS'73'
p9619
aa(lp9620
I534
aS'74'
p9621
aa(lp9622
I534
aS'75'
p9623
aa(lp9624
I534
aS'76'
p9625
aa(lp9626
I534
aS'77'
p9627
aa(lp9628
I534
aS'78'
p9629
aaa(lp9630
(lp9631
I534
aV\u0627\u0644\u0648\u0627\u0642\u0639\u0629
p9632
aa(lp9633
I534
aS'1'
aa(lp9634
I534
aS'2'
aa(lp9635
I534
aS'3'
aa(lp9636
I534
aS'4'
aa(lp9637
I534
aS'5'
aa(lp9638
I534
aS'6'
aa(lp9639
I534
aS'7'
aa(lp9640
I534
aS'8'
aa(lp9641
I534
aS'9'
aa(lp9642
I534
aS'10'
p9643
aa(lp9644
I534
aS'11'
p9645
aa(lp9646
I534
aS'12'
p9647
aa(lp9648
I534
aS'13'
p9649
aa(lp9650
I534
aS'14'
p9651
aa(lp9652
I534
aS'15'
p9653
aa(lp9654
I534
aS'16'
p9655
aa(lp9656
I535
aS'17'
p9657
aa(lp9658
I535
aS'18'
p9659
aa(lp9660
I535
aS'19'
p9661
aa(lp9662
I535
aS'20'
p9663
aa(lp9664
I535
aS'21'
p9665
aa(lp9666
I535
aS'22'
p9667
aa(lp9668
I535
aS'23'
p9669
aa(lp9670
I535
aS'24'
p9671
aa(lp9672
I535
aS'25'
p9673
aa(lp9674
I535
aS'26'
p9675
aa(lp9676
I535
aS'27'
p9677
aa(lp9678
I535
aS'28'
p9679
aa(lp9680
I535
aS'29'
p9681
aa(lp9682
I535
aS'30'
p9683
aa(lp9684
I535
aS'31'
p9685
aa(lp9686
I535
aS'32'
p9687
aa(lp9688
I535
aS'33'
p9689
aa(lp9690
I535
aS'34'
p9691
aa(lp9692
I535
aS'35'
p9693
aa(lp9694
I535
aS'36'
p9695
aa(lp9696
I535
aS'37'
p9697
aa(lp9698
I535
aS'38'
p9699
aa(lp9700
I535
aS'39'
p9701
aa(lp9702
I535
aS'40'
p9703
aa(lp9704
I535
aS'41'
p9705
aa(lp9706
I535
aS'42'
p9707
aa(lp9708
I535
aS'43'
p9709
aa(lp9710
I535
aS'44'
p9711
aa(lp9712
I535
aS'45'
p9713
aa(lp9714
I535
aS'46'
p9715
aa(lp9716
I535
aS'47'
p9717
aa(lp9718
I535
aS'48'
p9719
aa(lp9720
I535
aS'49'
p9721
aa(lp9722
I535
aS'50'
p9723
aa(lp9724
I536
aS'51'
p9725
aa(lp9726
I536
aS'52'
p9727
aa(lp9728
I536
aS'53'
p9729
aa(lp9730
I536
aS'54'
p9731
aa(lp9732
I536
aS'55'
p9733
aa(lp9734
I536
aS'56'
p9735
aa(lp9736
I536
aS'57'
p9737
aa(lp9738
I536
aS'58'
p9739
aa(lp9740
I536
aS'59'
p9741
aa(lp9742
I536
aS'60'
p9743
aa(lp9744
I536
aS'61'
p9745
aa(lp9746
I536
aS'62'
p9747
aa(lp9748
I536
aS'63'
p9749
aa(lp9750
I536
aS'64'
p9751
aa(lp9752
I536
aS'65'
p9753
aa(lp9754
I536
aS'66'
p9755
aa(lp9756
I536
aS'67'
p9757
aa(lp9758
I536
aS'68'
p9759
aa(lp9760
I536
aS'69'
p9761
aa(lp9762
I536
aS'70'
p9763
aa(lp9764
I536
aS'71'
p9765
aa(lp9766
I536
aS'72'
p9767
aa(lp9768
I536
aS'73'
p9769
aa(lp9770
I536
aS'74'
p9771
aa(lp9772
I536
aS'75'
p9773
aa(lp9774
I536
aS'76'
p9775
aa(lp9776
I537
aS'77'
p9777
aa(lp9778
I537
aS'78'
p9779
aa(lp9780
I537
aS'79'
p9781
aa(lp9782
I537
aS'80'
p9783
aa(lp9784
I537
aS'81'
p9785
aa(lp9786
I537
aS'82'
p9787
aa(lp9788
I537
aS'83'
p9789
aa(lp9790
I537
aS'84'
p9791
aa(lp9792
I537
aS'85'
p9793
aa(lp9794
I537
aS'86'
p9795
aa(lp9796
I537
aS'87'
p9797
aa(lp9798
I537
aS'88'
p9799
aa(lp9800
I537
aS'89'
p9801
aa(lp9802
I537
aS'90'
p9803
aa(lp9804
I537
aS'91'
p9805
aa(lp9806
I537
aS'92'
p9807
aa(lp9808
I537
aS'93'
p9809
aa(lp9810
I537
aS'94'
p9811
aa(lp9812
I537
aS'95'
p9813
aa(lp9814
I537
aS'96'
p9815
aaa(lp9816
(lp9817
I537
aV\u0627\u0644\u062d\u062f\u064a\u062f
p9818
aa(lp9819
I537
aS'1'
aa(lp9820
I537
aS'2'
aa(lp9821
I537
aS'3'
aa(lp9822
I538
aS'4'
aa(lp9823
I538
aS'5'
aa(lp9824
I538
aS'6'
aa(lp9825
I538
aS'7'
aa(lp9826
I538
aS'8'
aa(lp9827
I538
aS'9'
aa(lp9828
I538
aS'10'
p9829
aa(lp9830
I538
aS'11'
p9831
aa(lp9832
I539
aS'12'
p9833
aa(lp9834
I539
aS'13'
p9835
aa(lp9836
I539
aS'14'
p9837
aa(lp9838
I539
aS'15'
p9839
aa(lp9840
I539
aS'16'
p9841
aa(lp9842
I539
aS'17'
p9843
aa(lp9844
I539
aS'18'
p9845
aa(lp9846
I540
aS'19'
p9847
aa(lp9848
I540
aS'20'
p9849
aa(lp9850
I540
aS'21'
p9851
aa(lp9852
I540
aS'22'
p9853
aa(lp9854
I540
aS'23'
p9855
aa(lp9856
I540
aS'24'
p9857
aa(lp9858
I541
aS'25'
p9859
aa(lp9860
I541
aS'26'
p9861
aa(lp9862
I541
aS'27'
p9863
aa(lp9864
I541
aS'28'
p9865
aa(lp9866
I541
aS'29'
p9867
aaa(lp9868
(lp9869
I542
aV\u0627\u0644\u0645\u062c\u0627\u062f\u0644\u0629
p9870
aa(lp9871
I542
aS'1'
aa(lp9872
I542
aS'2'
aa(lp9873
I542
aS'3'
aa(lp9874
I542
aS'4'
aa(lp9875
I542
aS'5'
aa(lp9876
I542
aS'6'
aa(lp9877
I543
aS'7'
aa(lp9878
I543
aS'8'
aa(lp9879
I543
aS'9'
aa(lp9880
I543
aS'10'
p9881
aa(lp9882
I543
aS'11'
p9883
aa(lp9884
I544
aS'12'
p9885
aa(lp9886
I544
aS'13'
p9887
aa(lp9888
I544
aS'14'
p9889
aa(lp9890
I544
aS'15'
p9891
aa(lp9892
I544
aS'16'
p9893
aa(lp9894
I544
aS'17'
p9895
aa(lp9896
I544
aS'18'
p9897
aa(lp9898
I544
aS'19'
p9899
aa(lp9900
I544
aS'20'
p9901
aa(lp9902
I544
aS'21'
p9903
aa(lp9904
I545
aS'22'
p9905
aaa(lp9906
(lp9907
I545
aV\u0627\u0644\u062d\u0634\u0631
p9908
aa(lp9909
I545
aS'1'
aa(lp9910
I545
aS'2'
aa(lp9911
I545
aS'3'
aa(lp9912
I546
aS'4'
aa(lp9913
I546
aS'5'
aa(lp9914
I546
aS'6'
aa(lp9915
I546
aS'7'
aa(lp9916
I546
aS'8'
aa(lp9917
I546
aS'9'
aa(lp9918
I547
aS'10'
p9919
aa(lp9920
I547
aS'11'
p9921
aa(lp9922
I547
aS'12'
p9923
aa(lp9924
I547
aS'13'
p9925
aa(lp9926
I547
aS'14'
p9927
aa(lp9928
I547
aS'15'
p9929
aa(lp9930
I547
aS'16'
p9931
aa(lp9932
I548
aS'17'
p9933
aa(lp9934
I548
aS'18'
p9935
aa(lp9936
I548
aS'19'
p9937
aa(lp9938
I548
aS'20'
p9939
aa(lp9940
I548
aS'21'
p9941
aa(lp9942
I548
aS'22'
p9943
aa(lp9944
I548
aS'23'
p9945
aa(lp9946
I548
aS'24'
p9947
aaa(lp9948
(lp9949
I549
aV\u0627\u0644\u0645\u0645\u062a\u062d\u0646\u0629
p9950
aa(lp9951
I549
aS'1'
aa(lp9952
I549
aS'2'
aa(lp9953
I549
aS'3'
aa(lp9954
I549
aS'4'
aa(lp9955
I549
aS'5'
aa(lp9956
I550
aS'6'
aa(lp9957
I550
aS'7'
aa(lp9958
I550
aS'8'
aa(lp9959
I550
aS'9'
aa(lp9960
I550
aS'10'
p9961
aa(lp9962
I550
aS'11'
p9963
aa(lp9964
I551
aS'12'
p9965
aa(lp9966
I551
aS'13'
p9967
aaa(lp9968
(lp9969
I551
aV\u0627\u0644\u0635\u0641
p9970
aa(lp9971
I551
aS'1'
aa(lp9972
I551
aS'2'
aa(lp9973
I551
aS'3'
aa(lp9974
I551
aS'4'
aa(lp9975
I551
aS'5'
aa(lp9976
I552
aS'6'
aa(lp9977
I552
aS'7'
aa(lp9978
I552
aS'8'
aa(lp9979
I552
aS'9'
aa(lp9980
I552
aS'10'
p9981
aa(lp9982
I552
aS'11'
p9983
aa(lp9984
I552
aS'12'
p9985
aa(lp9986
I552
aS'13'
p9987
aa(lp9988
I552
aS'14'
p9989
aaa(lp9990
(lp9991
I553
aV\u0627\u0644\u062c\u0645\u0639\u0629
p9992
aa(lp9993
I553
aS'1'
aa(lp9994
I553
aS'2'
aa(lp9995
I553
aS'3'
aa(lp9996
I553
aS'4'
aa(lp9997
I553
aS'5'
aa(lp9998
I553
aS'6'
aa(lp9999
I553
aS'7'
aa(lp10000
I553
aS'8'
aa(lp10001
I554
aS'9'
aa(lp10002
I554
aS'10'
p10003
aa(lp10004
I554
aS'11'
p10005
aaa(lp10006
(lp10007
I554
aV\u0627\u0644\u0645\u0646\u0627\u0641\u0642\u0648\u0646
p10008
aa(lp10009
I554
aS'1'
aa(lp10010
I554
aS'2'
aa(lp10011
I554
aS'3'
aa(lp10012
I554
aS'4'
aa(lp10013
I555
aS'5'
aa(lp10014
I555
aS'6'
aa(lp10015
I555
aS'7'
aa(lp10016
I555
aS'8'
aa(lp10017
I555
aS'9'
aa(lp10018
I555
aS'10'
p10019
aa(lp10020
I555
aS'11'
p10021
aaa(lp10022
(lp10023
I556
aV\u0627\u0644\u062a\u063a\u0627\u0628\u0646
p10024
aa(lp10025
I556
aS'1'
aa(lp10026
I556
aS'2'
aa(lp10027
I556
aS'3'
aa(lp10028
I556
aS'4'
aa(lp10029
I556
aS'5'
aa(lp10030
I556
aS'6'
aa(lp10031
I556
aS'7'
aa(lp10032
I556
aS'8'
aa(lp10033
I556
aS'9'
aa(lp10034
I557
aS'10'
p10035
aa(lp10036
I557
aS'11'
p10037
aa(lp10038
I557
aS'12'
p10039
aa(lp10040
I557
aS'13'
p10041
aa(lp10042
I557
aS'14'
p10043
aa(lp10044
I557
aS'15'
p10045
aa(lp10046
I557
aS'16'
p10047
aa(lp10048
I557
aS'17'
p10049
aa(lp10050
I557
aS'18'
p10051
aaa(lp10052
(lp10053
I558
aV\u0627\u0644\u0637\u0644\u0627\u0642
p10054
aa(lp10055
I558
aS'1'
aa(lp10056
I558
aS'2'
aa(lp10057
I558
aS'3'
aa(lp10058
I558
aS'4'
aa(lp10059
I558
aS'5'
aa(lp10060
I559
aS'6'
aa(lp10061
I559
aS'7'
aa(lp10062
I559
aS'8'
aa(lp10063
I559
aS'9'
aa(lp10064
I559
aS'10'
p10065
aa(lp10066
I559
aS'11'
p10067
aa(lp10068
I559
aS'12'
p10069
aaa(lp10070
(lp10071
I560
aV\u0627\u0644\u062a\u062d\u0631\u064a\u0645
p10072
aa(lp10073
I560
aS'1'
aa(lp10074
I560
aS'2'
aa(lp10075
I560
aS'3'
aa(lp10076
I560
aS'4'
aa(lp10077
I560
aS'5'
aa(lp10078
I560
aS'6'
aa(lp10079
I560
aS'7'
aa(lp10080
I561
aS'8'
aa(lp10081
I561
aS'9'
aa(lp10082
I561
aS'10'
p10083
aa(lp10084
I561
aS'11'
p10085
aa(lp10086
I561
aS'12'
p10087
aaa(lp10088
(lp10089
I562
aV\u0627\u0644\u0645\u0644\u0643
p10090
aa(lp10091
I562
aS'1'
aa(lp10092
I562
aS'2'
aa(lp10093
I562
aS'3'
aa(lp10094
I562
aS'4'
aa(lp10095
I562
aS'5'
aa(lp10096
I562
aS'6'
aa(lp10097
I562
aS'7'
aa(lp10098
I562
aS'8'
aa(lp10099
I562
aS'9'
aa(lp10100
I562
aS'10'
p10101
aa(lp10102
I562
aS'11'
p10103
aa(lp10104
I562
aS'12'
p10105
aa(lp10106
I563
aS'13'
p10107
aa(lp10108
I563
aS'14'
p10109
aa(lp10110
I563
aS'15'
p10111
aa(lp10112
I563
aS'16'
p10113
aa(lp10114
I563
aS'17'
p10115
aa(lp10116
I563
aS'18'
p10117
aa(lp10118
I563
aS'19'
p10119
aa(lp10120
I563
aS'20'
p10121
aa(lp10122
I563
aS'21'
p10123
aa(lp10124
I563
aS'22'
p10125
aa(lp10126
I563
aS'23'
p10127
aa(lp10128
I563
aS'24'
p10129
aa(lp10130
I563
aS'25'
p10131
aa(lp10132
I563
aS'26'
p10133
aa(lp10134
I564
aS'27'
p10135
aa(lp10136
I564
aS'28'
p10137
aa(lp10138
I564
aS'29'
p10139
aa(lp10140
I564
aS'30'
p10141
aaa(lp10142
(lp10143
I564
aV\u0627\u0644\u0642\u0644\u0645
p10144
aa(lp10145
I564
aS'1'
aa(lp10146
I564
aS'2'
aa(lp10147
I564
aS'3'
aa(lp10148
I564
aS'4'
aa(lp10149
I564
aS'5'
aa(lp10150
I564
aS'6'
aa(lp10151
I564
aS'7'
aa(lp10152
I564
aS'8'
aa(lp10153
I564
aS'9'
aa(lp10154
I564
aS'10'
p10155
aa(lp10156
I564
aS'11'
p10157
aa(lp10158
I564
aS'12'
p10159
aa(lp10160
I564
aS'13'
p10161
aa(lp10162
I564
aS'14'
p10163
aa(lp10164
I564
aS'15'
p10165
aa(lp10166
I565
aS'16'
p10167
aa(lp10168
I565
aS'17'
p10169
aa(lp10170
I565
aS'18'
p10171
aa(lp10172
I565
aS'19'
p10173
aa(lp10174
I565
aS'20'
p10175
aa(lp10176
I565
aS'21'
p10177
aa(lp10178
I565
aS'22'
p10179
aa(lp10180
I565
aS'23'
p10181
aa(lp10182
I565
aS'24'
p10183
aa(lp10184
I565
aS'25'
p10185
aa(lp10186
I565
aS'26'
p10187
aa(lp10188
I565
aS'27'
p10189
aa(lp10190
I565
aS'28'
p10191
aa(lp10192
I565
aS'29'
p10193
aa(lp10194
I565
aS'30'
p10195
aa(lp10196
I565
aS'31'
p10197
aa(lp10198
I565
aS'32'
p10199
aa(lp10200
I565
aS'33'
p10201
aa(lp10202
I565
aS'34'
p10203
aa(lp10204
I565
aS'35'
p10205
aa(lp10206
I565
aS'36'
p10207
aa(lp10208
I565
aS'37'
p10209
aa(lp10210
I565
aS'38'
p10211
aa(lp10212
I565
aS'39'
p10213
aa(lp10214
I565
aS'40'
p10215
aa(lp10216
I565
aS'41'
p10217
aa(lp10218
I565
aS'42'
p10219
aa(lp10220
I566
aS'43'
p10221
aa(lp10222
I566
aS'44'
p10223
aa(lp10224
I566
aS'45'
p10225
aa(lp10226
I566
aS'46'
p10227
aa(lp10228
I566
aS'47'
p10229
aa(lp10230
I566
aS'48'
p10231
aa(lp10232
I566
aS'49'
p10233
aa(lp10234
I566
aS'50'
p10235
aa(lp10236
I566
aS'51'
p10237
aa(lp10238
I566
aS'52'
p10239
aaa(lp10240
(lp10241
I566
aV\u0627\u0644\u062d\u0627\u0642\u0629
p10242
aa(lp10243
I566
aS'1'
aa(lp10244
I566
aS'2'
aa(lp10245
I566
aS'3'
aa(lp10246
I566
aS'4'
aa(lp10247
I566
aS'5'
aa(lp10248
I566
aS'6'
aa(lp10249
I566
aS'7'
aa(lp10250
I566
aS'8'
aa(lp10251
I567
aS'9'
aa(lp10252
I567
aS'10'
p10253
aa(lp10254
I567
aS'11'
p10255
aa(lp10256
I567
aS'12'
p10257
aa(lp10258
I567
aS'13'
p10259
aa(lp10260
I567
aS'14'
p10261
aa(lp10262
I567
aS'15'
p10263
aa(lp10264
I567
aS'16'
p10265
aa(lp10266
I567
aS'17'
p10267
aa(lp10268
I567
aS'18'
p10269
aa(lp10270
I567
aS'19'
p10271
aa(lp10272
I567
aS'20'
p10273
aa(lp10274
I567
aS'21'
p10275
aa(lp10276
I567
aS'22'
p10277
aa(lp10278
I567
aS'23'
p10279
aa(lp10280
I567
aS'24'
p10281
aa(lp10282
I567
aS'25'
p10283
aa(lp10284
I567
aS'26'
p10285
aa(lp10286
I567
aS'27'
p10287
aa(lp10288
I567
aS'28'
p10289
aa(lp10290
I567
aS'29'
p10291
aa(lp10292
I567
aS'30'
p10293
aa(lp10294
I567
aS'31'
p10295
aa(lp10296
I567
aS'32'
p10297
aa(lp10298
I567
aS'33'
p10299
aa(lp10300
I567
aS'34'
p10301
aa(lp10302
I568
aS'35'
p10303
aa(lp10304
I568
aS'36'
p10305
aa(lp10306
I568
aS'37'
p10307
aa(lp10308
I568
aS'38'
p10309
aa(lp10310
I568
aS'39'
p10311
aa(lp10312
I568
aS'40'
p10313
aa(lp10314
I568
aS'41'
p10315
aa(lp10316
I568
aS'42'
p10317
aa(lp10318
I568
aS'43'
p10319
aa(lp10320
I568
aS'44'
p10321
aa(lp10322
I568
aS'45'
p10323
aa(lp10324
I568
aS'46'
p10325
aa(lp10326
I568
aS'47'
p10327
aa(lp10328
I568
aS'48'
p10329
aa(lp10330
I568
aS'49'
p10331
aa(lp10332
I568
aS'50'
p10333
aa(lp10334
I568
aS'51'
p10335
aa(lp10336
I568
aS'52'
p10337
aaa(lp10338
(lp10339
I568
aV\u0627\u0644\u0645\u0639\u0627\u0631\u062c
p10340
aa(lp10341
I568
aS'1'
aa(lp10342
I568
aS'2'
aa(lp10343
I568
aS'3'
aa(lp10344
I568
aS'4'
aa(lp10345
I568
aS'5'
aa(lp10346
I568
aS'6'
aa(lp10347
I568
aS'7'
aa(lp10348
I568
aS'8'
aa(lp10349
I568
aS'9'
aa(lp10350
I568
aS'10'
p10351
aa(lp10352
I569
aS'11'
p10353
aa(lp10354
I569
aS'12'
p10355
aa(lp10356
I569
aS'13'
p10357
aa(lp10358
I569
aS'14'
p10359
aa(lp10360
I569
aS'15'
p10361
aa(lp10362
I569
aS'16'
p10363
aa(lp10364
I569
aS'17'
p10365
aa(lp10366
I569
aS'18'
p10367
aa(lp10368
I569
aS'19'
p10369
aa(lp10370
I569
aS'20'
p10371
aa(lp10372
I569
aS'21'
p10373
aa(lp10374
I569
aS'22'
p10375
aa(lp10376
I569
aS'23'
p10377
aa(lp10378
I569
aS'24'
p10379
aa(lp10380
I569
aS'25'
p10381
aa(lp10382
I569
aS'26'
p10383
aa(lp10384
I569
aS'27'
p10385
aa(lp10386
I569
aS'28'
p10387
aa(lp10388
I569
aS'29'
p10389
aa(lp10390
I569
aS'30'
p10391
aa(lp10392
I569
aS'31'
p10393
aa(lp10394
I569
aS'32'
p10395
aa(lp10396
I569
aS'33'
p10397
aa(lp10398
I569
aS'34'
p10399
aa(lp10400
I569
aS'35'
p10401
aa(lp10402
I569
aS'36'
p10403
aa(lp10404
I569
aS'37'
p10405
aa(lp10406
I569
aS'38'
p10407
aa(lp10408
I569
aS'39'
p10409
aa(lp10410
I570
aS'40'
p10411
aa(lp10412
I570
aS'41'
p10413
aa(lp10414
I570
aS'42'
p10415
aa(lp10416
I570
aS'43'
p10417
aa(lp10418
I570
aS'44'
p10419
aaa(lp10420
(lp10421
I570
aV\u0646\u0648\u062d
p10422
aa(lp10423
I570
aS'1'
aa(lp10424
I570
aS'2'
aa(lp10425
I570
aS'3'
aa(lp10426
I570
aS'4'
aa(lp10427
I570
aS'5'
aa(lp10428
I570
aS'6'
aa(lp10429
I570
aS'7'
aa(lp10430
I570
aS'8'
aa(lp10431
I570
aS'9'
aa(lp10432
I570
aS'10'
p10433
aa(lp10434
I571
aS'11'
p10435
aa(lp10436
I571
aS'12'
p10437
aa(lp10438
I571
aS'13'
p10439
aa(lp10440
I571
aS'14'
p10441
aa(lp10442
I571
aS'15'
p10443
aa(lp10444
I571
aS'16'
p10445
aa(lp10446
I571
aS'17'
p10447
aa(lp10448
I571
aS'18'
p10449
aa(lp10450
I571
aS'19'
p10451
aa(lp10452
I571
aS'20'
p10453
aa(lp10454
I571
aS'21'
p10455
aa(lp10456
I571
aS'22'
p10457
aa(lp10458
I571
aS'23'
p10459
aa(lp10460
I571
aS'24'
p10461
aa(lp10462
I571
aS'25'
p10463
aa(lp10464
I571
aS'26'
p10465
aa(lp10466
I571
aS'27'
p10467
aa(lp10468
I571
aS'28'
p10469
aaa(lp10470
(lp10471
I572
aV\u0627\u0644\u062c\u0646
p10472
aa(lp10473
I572
aS'1'
aa(lp10474
I572
aS'2'
aa(lp10475
I572
aS'3'
aa(lp10476
I572
aS'4'
aa(lp10477
I572
aS'5'
aa(lp10478
I572
aS'6'
aa(lp10479
I572
aS'7'
aa(lp10480
I572
aS'8'
aa(lp10481
I572
aS'9'
aa(lp10482
I572
aS'10'
p10483
aa(lp10484
I572
aS'11'
p10485
aa(lp10486
I572
aS'12'
p10487
aa(lp10488
I572
aS'13'
p10489
aa(lp10490
I573
aS'14'
p10491
aa(lp10492
I573
aS'15'
p10493
aa(lp10494
I573
aS'16'
p10495
aa(lp10496
I573
aS'17'
p10497
aa(lp10498
I573
aS'18'
p10499
aa(lp10500
I573
aS'19'
p10501
aa(lp10502
I573
aS'20'
p10503
aa(lp10504
I573
aS'21'
p10505
aa(lp10506
I573
aS'22'
p10507
aa(lp10508
I573
aS'23'
p10509
aa(lp10510
I573
aS'24'
p10511
aa(lp10512
I573
aS'25'
p10513
aa(lp10514
I573
aS'26'
p10515
aa(lp10516
I573
aS'27'
p10517
aa(lp10518
I573
aS'28'
p10519
aaa(lp10520
(lp10521
I574
aV\u0627\u0644\u0645\u0632\u0645\u0644
p10522
aa(lp10523
I574
aS'1'
aa(lp10524
I574
aS'2'
aa(lp10525
I574
aS'3'
aa(lp10526
I574
aS'4'
aa(lp10527
I574
aS'5'
aa(lp10528
I574
aS'6'
aa(lp10529
I574
aS'7'
aa(lp10530
I574
aS'8'
aa(lp10531
I574
aS'9'
aa(lp10532
I574
aS'10'
p10533
aa(lp10534
I574
aS'11'
p10535
aa(lp10536
I574
aS'12'
p10537
aa(lp10538
I574
aS'13'
p10539
aa(lp10540
I574
aS'14'
p10541
aa(lp10542
I574
aS'15'
p10543
aa(lp10544
I574
aS'16'
p10545
aa(lp10546
I574
aS'17'
p10547
aa(lp10548
I574
aS'18'
p10549
aa(lp10550
I574
aS'19'
p10551
aa(lp10552
I575
aS'20'
p10553
aaa(lp10554
(lp10555
I575
aV\u0627\u0644\u0645\u062f\u062b\u0631
p10556
aa(lp10557
I575
aS'1'
aa(lp10558
I575
aS'2'
aa(lp10559
I575
aS'3'
aa(lp10560
I575
aS'4'
aa(lp10561
I575
aS'5'
aa(lp10562
I575
aS'6'
aa(lp10563
I575
aS'7'
aa(lp10564
I575
aS'8'
aa(lp10565
I575
aS'9'
aa(lp10566
I575
aS'10'
p10567
aa(lp10568
I575
aS'11'
p10569
aa(lp10570
I575
aS'12'
p10571
aa(lp10572
I575
aS'13'
p10573
aa(lp10574
I575
aS'14'
p10575
aa(lp10576
I575
aS'15'
p10577
aa(lp10578
I575
aS'16'
p10579
aa(lp10580
I575
aS'17'
p10581
aa(lp10582
I576
aS'18'
p10583
aa(lp10584
I576
aS'19'
p10585
aa(lp10586
I576
aS'20'
p10587
aa(lp10588
I576
aS'21'
p10589
aa(lp10590
I576
aS'22'
p10591
aa(lp10592
I576
aS'23'
p10593
aa(lp10594
I576
aS'24'
p10595
aa(lp10596
I576
aS'25'
p10597
aa(lp10598
I576
aS'26'
p10599
aa(lp10600
I576
aS'27'
p10601
aa(lp10602
I576
aS'28'
p10603
aa(lp10604
I576
aS'29'
p10605
aa(lp10606
I576
aS'30'
p10607
aa(lp10608
I576
aS'31'
p10609
aa(lp10610
I576
aS'32'
p10611
aa(lp10612
I576
aS'33'
p10613
aa(lp10614
I576
aS'34'
p10615
aa(lp10616
I576
aS'35'
p10617
aa(lp10618
I576
aS'36'
p10619
aa(lp10620
I576
aS'37'
p10621
aa(lp10622
I576
aS'38'
p10623
aa(lp10624
I576
aS'39'
p10625
aa(lp10626
I576
aS'40'
p10627
aa(lp10628
I576
aS'41'
p10629
aa(lp10630
I576
aS'42'
p10631
aa(lp10632
I576
aS'43'
p10633
aa(lp10634
I576
aS'44'
p10635
aa(lp10636
I576
aS'45'
p10637
aa(lp10638
I576
aS'46'
p10639
aa(lp10640
I576
aS'47'
p10641
aa(lp10642
I577
aS'48'
p10643
aa(lp10644
I577
aS'49'
p10645
aa(lp10646
I577
aS'50'
p10647
aa(lp10648
I577
aS'51'
p10649
aa(lp10650
I577
aS'52'
p10651
aa(lp10652
I577
aS'53'
p10653
aa(lp10654
I577
aS'54'
p10655
aa(lp10656
I577
aS'55'
p10657
aa(lp10658
I577
aS'56'
p10659
aaa(lp10660
(lp10661
I577
aV\u0627\u0644\u0642\u064a\u0627\u0645\u0629
p10662
aa(lp10663
I577
aS'1'
aa(lp10664
I577
aS'2'
aa(lp10665
I577
aS'3'
aa(lp10666
I577
aS'4'
aa(lp10667
I577
aS'5'
aa(lp10668
I577
aS'6'
aa(lp10669
I577
aS'7'
aa(lp10670
I577
aS'8'
aa(lp10671
I577
aS'9'
aa(lp10672
I577
aS'10'
p10673
aa(lp10674
I577
aS'11'
p10675
aa(lp10676
I577
aS'12'
p10677
aa(lp10678
I577
aS'13'
p10679
aa(lp10680
I577
aS'14'
p10681
aa(lp10682
I577
aS'15'
p10683
aa(lp10684
I577
aS'16'
p10685
aa(lp10686
I577
aS'17'
p10687
aa(lp10688
I577
aS'18'
p10689
aa(lp10690
I577
aS'19'
p10691
aa(lp10692
I578
aS'20'
p10693
aa(lp10694
I578
aS'21'
p10695
aa(lp10696
I578
aS'22'
p10697
aa(lp10698
I578
aS'23'
p10699
aa(lp10700
I578
aS'24'
p10701
aa(lp10702
I578
aS'25'
p10703
aa(lp10704
I578
aS'26'
p10705
aa(lp10706
I578
aS'27'
p10707
aa(lp10708
I578
aS'28'
p10709
aa(lp10710
I578
aS'29'
p10711
aa(lp10712
I578
aS'30'
p10713
aa(lp10714
I578
aS'31'
p10715
aa(lp10716
I578
aS'32'
p10717
aa(lp10718
I578
aS'33'
p10719
aa(lp10720
I578
aS'34'
p10721
aa(lp10722
I578
aS'35'
p10723
aa(lp10724
I578
aS'36'
p10725
aa(lp10726
I578
aS'37'
p10727
aa(lp10728
I578
aS'38'
p10729
aa(lp10730
I578
aS'39'
p10731
aa(lp10732
I578
aS'40'
p10733
aaa(lp10734
(lp10735
I578
aV\u0627\u0644\u0625\u0646\u0633\u0627\u0646
p10736
aa(lp10737
I578
aS'1'
aa(lp10738
I578
aS'2'
aa(lp10739
I578
aS'3'
aa(lp10740
I578
aS'4'
aa(lp10741
I578
aS'5'
aa(lp10742
I579
aS'6'
aa(lp10743
I579
aS'7'
aa(lp10744
I579
aS'8'
aa(lp10745
I579
aS'9'
aa(lp10746
I579
aS'10'
p10747
aa(lp10748
I579
aS'11'
p10749
aa(lp10750
I579
aS'12'
p10751
aa(lp10752
I579
aS'13'
p10753
aa(lp10754
I579
aS'14'
p10755
aa(lp10756
I579
aS'15'
p10757
aa(lp10758
I579
aS'16'
p10759
aa(lp10760
I579
aS'17'
p10761
aa(lp10762
I579
aS'18'
p10763
aa(lp10764
I579
aS'19'
p10765
aa(lp10766
I579
aS'20'
p10767
aa(lp10768
I579
aS'21'
p10769
aa(lp10770
I579
aS'22'
p10771
aa(lp10772
I579
aS'23'
p10773
aa(lp10774
I579
aS'24'
p10775
aa(lp10776
I579
aS'25'
p10777
aa(lp10778
I580
aS'26'
p10779
aa(lp10780
I580
aS'27'
p10781
aa(lp10782
I580
aS'28'
p10783
aa(lp10784
I580
aS'29'
p10785
aa(lp10786
I580
aS'30'
p10787
aa(lp10788
I580
aS'31'
p10789
aaa(lp10790
(lp10791
I580
aV\u0627\u0644\u0645\u0631\u0633\u0644\u0627\u062a
p10792
aa(lp10793
I580
aS'1'
aa(lp10794
I580
aS'2'
aa(lp10795
I580
aS'3'
aa(lp10796
I580
aS'4'
aa(lp10797
I580
aS'5'
aa(lp10798
I580
aS'6'
aa(lp10799
I580
aS'7'
aa(lp10800
I580
aS'8'
aa(lp10801
I580
aS'9'
aa(lp10802
I580
aS'10'
p10803
aa(lp10804
I580
aS'11'
p10805
aa(lp10806
I580
aS'12'
p10807
aa(lp10808
I580
aS'13'
p10809
aa(lp10810
I580
aS'14'
p10811
aa(lp10812
I580
aS'15'
p10813
aa(lp10814
I580
aS'16'
p10815
aa(lp10816
I580
aS'17'
p10817
aa(lp10818
I580
aS'18'
p10819
aa(lp10820
I580
aS'19'
p10821
aa(lp10822
I581
aS'20'
p10823
aa(lp10824
I581
aS'21'
p10825
aa(lp10826
I581
aS'22'
p10827
aa(lp10828
I581
aS'23'
p10829
aa(lp10830
I581
aS'24'
p10831
aa(lp10832
I581
aS'25'
p10833
aa(lp10834
I581
aS'26'
p10835
aa(lp10836
I581
aS'27'
p10837
aa(lp10838
I581
aS'28'
p10839
aa(lp10840
I581
aS'29'
p10841
aa(lp10842
I581
aS'30'
p10843
aa(lp10844
I581
aS'31'
p10845
aa(lp10846
I581
aS'32'
p10847
aa(lp10848
I581
aS'33'
p10849
aa(lp10850
I581
aS'34'
p10851
aa(lp10852
I581
aS'35'
p10853
aa(lp10854
I581
aS'36'
p10855
aa(lp10856
I581
aS'37'
p10857
aa(lp10858
I581
aS'38'
p10859
aa(lp10860
I581
aS'39'
p10861
aa(lp10862
I581
aS'40'
p10863
aa(lp10864
I581
aS'41'
p10865
aa(lp10866
I581
aS'42'
p10867
aa(lp10868
I581
aS'43'
p10869
aa(lp10870
I581
aS'44'
p10871
aa(lp10872
I581
aS'45'
p10873
aa(lp10874
I581
aS'46'
p10875
aa(lp10876
I581
aS'47'
p10877
aa(lp10878
I581
aS'48'
p10879
aa(lp10880
I581
aS'49'
p10881
aa(lp10882
I581
aS'50'
p10883
aaa(lp10884
(lp10885
I582
aV\u0627\u0644\u0646\u0628\u0623
p10886
aa(lp10887
I582
aS'1'
aa(lp10888
I582
aS'2'
aa(lp10889
I582
aS'3'
aa(lp10890
I582
aS'4'
aa(lp10891
I582
aS'5'
aa(lp10892
I582
aS'6'
aa(lp10893
I582
aS'7'
aa(lp10894
I582
aS'8'
aa(lp10895
I582
aS'9'
aa(lp10896
I582
aS'10'
p10897
aa(lp10898
I582
aS'11'
p10899
aa(lp10900
I582
aS'12'
p10901
aa(lp10902
I582
aS'13'
p10903
aa(lp10904
I582
aS'14'
p10905
aa(lp10906
I582
aS'15'
p10907
aa(lp10908
I582
aS'16'
p10909
aa(lp10910
I582
aS'17'
p10911
aa(lp10912
I582
aS'18'
p10913
aa(lp10914
I582
aS'19'
p10915
aa(lp10916
I582
aS'20'
p10917
aa(lp10918
I582
aS'21'
p10919
aa(lp10920
I582
aS'22'
p10921
aa(lp10922
I582
aS'23'
p10923
aa(lp10924
I582
aS'24'
p10925
aa(lp10926
I582
aS'25'
p10927
aa(lp10928
I582
aS'26'
p10929
aa(lp10930
I582
aS'27'
p10931
aa(lp10932
I582
aS'28'
p10933
aa(lp10934
I582
aS'29'
p10935
aa(lp10936
I582
aS'30'
p10937
aa(lp10938
I583
aS'31'
p10939
aa(lp10940
I583
aS'32'
p10941
aa(lp10942
I583
aS'33'
p10943
aa(lp10944
I583
aS'34'
p10945
aa(lp10946
I583
aS'35'
p10947
aa(lp10948
I583
aS'36'
p10949
aa(lp10950
I583
aS'37'
p10951
aa(lp10952
I583
aS'38'
p10953
aa(lp10954
I583
aS'39'
p10955
aa(lp10956
I583
aS'40'
p10957
aaa(lp10958
(lp10959
I583
aV\u0627\u0644\u0646\u0627\u0632\u0639\u0627\u062a
p10960
aa(lp10961
I583
aS'1'
aa(lp10962
I583
aS'2'
aa(lp10963
I583
aS'3'
aa(lp10964
I583
aS'4'
aa(lp10965
I583
aS'5'
aa(lp10966
I583
aS'6'
aa(lp10967
I583
aS'7'
aa(lp10968
I583
aS'8'
aa(lp10969
I583
aS'9'
aa(lp10970
I583
aS'10'
p10971
aa(lp10972
I583
aS'11'
p10973
aa(lp10974
I583
aS'12'
p10975
aa(lp10976
I583
aS'13'
p10977
aa(lp10978
I583
aS'14'
p10979
aa(lp10980
I583
aS'15'
p10981
aa(lp10982
I584
aS'16'
p10983
aa(lp10984
I584
aS'17'
p10985
aa(lp10986
I584
aS'18'
p10987
aa(lp10988
I584
aS'19'
p10989
aa(lp10990
I584
aS'20'
p10991
aa(lp10992
I584
aS'21'
p10993
aa(lp10994
I584
aS'22'
p10995
aa(lp10996
I584
aS'23'
p10997
aa(lp10998
I584
aS'24'
p10999
aa(lp11000
I584
aS'25'
p11001
aa(lp11002
I584
aS'26'
p11003
aa(lp11004
I584
aS'27'
p11005
aa(lp11006
I584
aS'28'
p11007
aa(lp11008
I584
aS'29'
p11009
aa(lp11010
I584
aS'30'
p11011
aa(lp11012
I584
aS'31'
p11013
aa(lp11014
I584
aS'32'
p11015
aa(lp11016
I584
aS'33'
p11017
aa(lp11018
I584
aS'34'
p11019
aa(lp11020
I584
aS'35'
p11021
aa(lp11022
I584
aS'36'
p11023
aa(lp11024
I584
aS'37'
p11025
aa(lp11026
I584
aS'38'
p11027
aa(lp11028
I584
aS'39'
p11029
aa(lp11030
I584
aS'40'
p11031
aa(lp11032
I584
aS'41'
p11033
aa(lp11034
I584
aS'42'
p11035
aa(lp11036
I584
aS'43'
p11037
aa(lp11038
I584
aS'44'
p11039
aa(lp11040
I584
aS'45'
p11041
aa(lp11042
I584
aS'46'
p11043
aaa(lp11044
(lp11045
I585
aV\u0639\u0628\u0633
p11046
aa(lp11047
I585
aS'1'
aa(lp11048
I585
aS'2'
aa(lp11049
I585
aS'3'
aa(lp11050
I585
aS'4'
aa(lp11051
I585
aS'5'
aa(lp11052
I585
aS'6'
aa(lp11053
I585
aS'7'
aa(lp11054
I585
aS'8'
aa(lp11055
I585
aS'9'
aa(lp11056
I585
aS'10'
p11057
aa(lp11058
I585
aS'11'
p11059
aa(lp11060
I585
aS'12'
p11061
aa(lp11062
I585
aS'13'
p11063
aa(lp11064
I585
aS'14'
p11065
aa(lp11066
I585
aS'15'
p11067
aa(lp11068
I585
aS'16'
p11069
aa(lp11070
I585
aS'17'
p11071
aa(lp11072
I585
aS'18'
p11073
aa(lp11074
I585
aS'19'
p11075
aa(lp11076
I585
aS'20'
p11077
aa(lp11078
I585
aS'21'
p11079
aa(lp11080
I585
aS'22'
p11081
aa(lp11082
I585
aS'23'
p11083
aa(lp11084
I585
aS'24'
p11085
aa(lp11086
I585
aS'25'
p11087
aa(lp11088
I585
aS'26'
p11089
aa(lp11090
I585
aS'27'
p11091
aa(lp11092
I585
aS'28'
p11093
aa(lp11094
I585
aS'29'
p11095
aa(lp11096
I585
aS'30'
p11097
aa(lp11098
I585
aS'31'
p11099
aa(lp11100
I585
aS'32'
p11101
aa(lp11102
I585
aS'33'
p11103
aa(lp11104
I585
aS'34'
p11105
aa(lp11106
I585
aS'35'
p11107
aa(lp11108
I585
aS'36'
p11109
aa(lp11110
I585
aS'37'
p11111
aa(lp11112
I585
aS'38'
p11113
aa(lp11114
I585
aS'39'
p11115
aa(lp11116
I585
aS'40'
p11117
aa(lp11118
I585
aS'41'
p11119
aa(lp11120
I585
aS'42'
p11121
aaa(lp11122
(lp11123
I586
aV\u0627\u0644\u062a\u0643\u0648\u064a\u0631
p11124
aa(lp11125
I586
aS'1'
aa(lp11126
I586
aS'2'
aa(lp11127
I586
aS'3'
aa(lp11128
I586
aS'4'
aa(lp11129
I586
aS'5'
aa(lp11130
I586
aS'6'
aa(lp11131
I586
aS'7'
aa(lp11132
I586
aS'8'
aa(lp11133
I586
aS'9'
aa(lp11134
I586
aS'10'
p11135
aa(lp11136
I586
aS'11'
p11137
aa(lp11138
I586
aS'12'
p11139
aa(lp11140
I586
aS'13'
p11141
aa(lp11142
I586
aS'14'
p11143
aa(lp11144
I586
aS'15'
p11145
aa(lp11146
I586
aS'16'
p11147
aa(lp11148
I586
aS'17'
p11149
aa(lp11150
I586
aS'18'
p11151
aa(lp11152
I586
aS'19'
p11153
aa(lp11154
I586
aS'20'
p11155
aa(lp11156
I586
aS'21'
p11157
aa(lp11158
I586
aS'22'
p11159
aa(lp11160
I586
aS'23'
p11161
aa(lp11162
I586
aS'24'
p11163
aa(lp11164
I586
aS'25'
p11165
aa(lp11166
I586
aS'26'
p11167
aa(lp11168
I586
aS'27'
p11169
aa(lp11170
I586
aS'28'
p11171
aa(lp11172
I586
aS'29'
p11173
aaa(lp11174
(lp11175
I587
aV\u0627\u0644\u0625\u0646\u0641\u0637\u0627\u0631
p11176
aa(lp11177
I587
aS'1'
aa(lp11178
I587
aS'2'
aa(lp11179
I587
aS'3'
aa(lp11180
I587
aS'4'
aa(lp11181
I587
aS'5'
aa(lp11182
I587
aS'6'
aa(lp11183
I587
aS'7'
aa(lp11184
I587
aS'8'
aa(lp11185
I587
aS'9'
aa(lp11186
I587
aS'10'
p11187
aa(lp11188
I587
aS'11'
p11189
aa(lp11190
I587
aS'12'
p11191
aa(lp11192
I587
aS'13'
p11193
aa(lp11194
I587
aS'14'
p11195
aa(lp11196
I587
aS'15'
p11197
aa(lp11198
I587
aS'16'
p11199
aa(lp11200
I587
aS'17'
p11201
aa(lp11202
I587
aS'18'
p11203
aa(lp11204
I587
aS'19'
p11205
aaa(lp11206
(lp11207
I587
aV\u0627\u0644\u0645\u0637\u0641\u0641\u064a\u0646
p11208
aa(lp11209
I587
aS'1'
aa(lp11210
I587
aS'2'
aa(lp11211
I587
aS'3'
aa(lp11212
I587
aS'4'
aa(lp11213
I587
aS'5'
aa(lp11214
I587
aS'6'
aa(lp11215
I588
aS'7'
aa(lp11216
I588
aS'8'
aa(lp11217
I588
aS'9'
aa(lp11218
I588
aS'10'
p11219
aa(lp11220
I588
aS'11'
p11221
aa(lp11222
I588
aS'12'
p11223
aa(lp11224
I588
aS'13'
p11225
aa(lp11226
I588
aS'14'
p11227
aa(lp11228
I588
aS'15'
p11229
aa(lp11230
I588
aS'16'
p11231
aa(lp11232
I588
aS'17'
p11233
aa(lp11234
I588
aS'18'
p11235
aa(lp11236
I588
aS'19'
p11237
aa(lp11238
I588
aS'20'
p11239
aa(lp11240
I588
aS'21'
p11241
aa(lp11242
I588
aS'22'
p11243
aa(lp11244
I588
aS'23'
p11245
aa(lp11246
I588
aS'24'
p11247
aa(lp11248
I588
aS'25'
p11249
aa(lp11250
I588
aS'26'
p11251
aa(lp11252
I588
aS'27'
p11253
aa(lp11254
I588
aS'28'
p11255
aa(lp11256
I588
aS'29'
p11257
aa(lp11258
I588
aS'30'
p11259
aa(lp11260
I588
aS'31'
p11261
aa(lp11262
I588
aS'32'
p11263
aa(lp11264
I588
aS'33'
p11265
aa(lp11266
I588
aS'34'
p11267
aa(lp11268
I589
aS'35'
p11269
aa(lp11270
I589
aS'36'
p11271
aaa(lp11272
(lp11273
I589
aV\u0627\u0644\u0625\u0646\u0634\u0642\u0627\u0642
p11274
aa(lp11275
I589
aS'1'
aa(lp11276
I589
aS'2'
aa(lp11277
I589
aS'3'
aa(lp11278
I589
aS'4'
aa(lp11279
I589
aS'5'
aa(lp11280
I589
aS'6'
aa(lp11281
I589
aS'7'
aa(lp11282
I589
aS'8'
aa(lp11283
I589
aS'9'
aa(lp11284
I589
aS'10'
p11285
aa(lp11286
I589
aS'11'
p11287
aa(lp11288
I589
aS'12'
p11289
aa(lp11290
I589
aS'13'
p11291
aa(lp11292
I589
aS'14'
p11293
aa(lp11294
I589
aS'15'
p11295
aa(lp11296
I589
aS'16'
p11297
aa(lp11298
I589
aS'17'
p11299
aa(lp11300
I589
aS'18'
p11301
aa(lp11302
I589
aS'19'
p11303
aa(lp11304
I589
aS'20'
p11305
aa(lp11306
I589
aS'21'
p11307
aa(lp11308
I589
aS'22'
p11309
aa(lp11310
I589
aS'23'
p11311
aa(lp11312
I589
aS'24'
p11313
aa(lp11314
I589
aS'25'
p11315
aaa(lp11316
(lp11317
I590
aV\u0627\u0644\u0628\u0631\u0648\u062c
p11318
aa(lp11319
I590
aS'1'
aa(lp11320
I590
aS'2'
aa(lp11321
I590
aS'3'
aa(lp11322
I590
aS'4'
aa(lp11323
I590
aS'5'
aa(lp11324
I590
aS'6'
aa(lp11325
I590
aS'7'
aa(lp11326
I590
aS'8'
aa(lp11327
I590
aS'9'
aa(lp11328
I590
aS'10'
p11329
aa(lp11330
I590
aS'11'
p11331
aa(lp11332
I590
aS'12'
p11333
aa(lp11334
I590
aS'13'
p11335
aa(lp11336
I590
aS'14'
p11337
aa(lp11338
I590
aS'15'
p11339
aa(lp11340
I590
aS'16'
p11341
aa(lp11342
I590
aS'17'
p11343
aa(lp11344
I590
aS'18'
p11345
aa(lp11346
I590
aS'19'
p11347
aa(lp11348
I590
aS'20'
p11349
aa(lp11350
I590
aS'21'
p11351
aa(lp11352
I590
aS'22'
p11353
aaa(lp11354
(lp11355
I591
aV\u0627\u0644\u0637\u0627\u0631\u0642
p11356
aa(lp11357
I591
aS'1'
aa(lp11358
I591
aS'2'
aa(lp11359
I591
aS'3'
aa(lp11360
I591
aS'4'
aa(lp11361
I591
aS'5'
aa(lp11362
I591
aS'6'
aa(lp11363
I591
aS'7'
aa(lp11364
I591
aS'8'
aa(lp11365
I591
aS'9'
aa(lp11366
I591
aS'10'
p11367
aa(lp11368
I591
aS'11'
p11369
aa(lp11370
I591
aS'12'
p11371
aa(lp11372
I591
aS'13'
p11373
aa(lp11374
I591
aS'14'
p11375
aa(lp11376
I591
aS'15'
p11377
aa(lp11378
I591
aS'16'
p11379
aa(lp11380
I591
aS'17'
p11381
aaa(lp11382
(lp11383
I591
aV\u0627\u0644\u0623\u0639\u0644\u0649
p11384
aa(lp11385
I591
aS'1'
aa(lp11386
I591
aS'2'
aa(lp11387
I591
aS'3'
aa(lp11388
I591
aS'4'
aa(lp11389
I591
aS'5'
aa(lp11390
I591
aS'6'
aa(lp11391
I591
aS'7'
aa(lp11392
I591
aS'8'
aa(lp11393
I591
aS'9'
aa(lp11394
I591
aS'10'
p11395
aa(lp11396
I591
aS'11'
p11397
aa(lp11398
I591
aS'12'
p11399
aa(lp11400
I591
aS'13'
p11401
aa(lp11402
I591
aS'14'
p11403
aa(lp11404
I591
aS'15'
p11405
aa(lp11406
I592
aS'16'
p11407
aa(lp11408
I592
aS'17'
p11409
aa(lp11410
I592
aS'18'
p11411
aa(lp11412
I592
aS'19'
p11413
aaa(lp11414
(lp11415
I592
aV\u0627\u0644\u063a\u0627\u0634\u064a\u0629
p11416
aa(lp11417
I592
aS'1'
aa(lp11418
I592
aS'2'
aa(lp11419
I592
aS'3'
aa(lp11420
I592
aS'4'
aa(lp11421
I592
aS'5'
aa(lp11422
I592
aS'6'
aa(lp11423
I592
aS'7'
aa(lp11424
I592
aS'8'
aa(lp11425
I592
aS'9'
aa(lp11426
I592
aS'10'
p11427
aa(lp11428
I592
aS'11'
p11429
aa(lp11430
I592
aS'12'
p11431
aa(lp11432
I592
aS'13'
p11433
aa(lp11434
I592
aS'14'
p11435
aa(lp11436
I592
aS'15'
p11437
aa(lp11438
I592
aS'16'
p11439
aa(lp11440
I592
aS'17'
p11441
aa(lp11442
I592
aS'18'
p11443
aa(lp11444
I592
aS'19'
p11445
aa(lp11446
I592
aS'20'
p11447
aa(lp11448
I592
aS'21'
p11449
aa(lp11450
I592
aS'22'
p11451
aa(lp11452
I592
aS'23'
p11453
aa(lp11454
I592
aS'24'
p11455
aa(lp11456
I592
aS'25'
p11457
aa(lp11458
I592
aS'26'
p11459
aaa(lp11460
(lp11461
I593
aV\u0627\u0644\u0641\u062c\u0631
p11462
aa(lp11463
I593
aS'1'
aa(lp11464
I593
aS'2'
aa(lp11465
I593
aS'3'
aa(lp11466
I593
aS'4'
aa(lp11467
I593
aS'5'
aa(lp11468
I593
aS'6'
aa(lp11469
I593
aS'7'
aa(lp11470
I593
aS'8'
aa(lp11471
I593
aS'9'
aa(lp11472
I593
aS'10'
p11473
aa(lp11474
I593
aS'11'
p11475
aa(lp11476
I593
aS'12'
p11477
aa(lp11478
I593
aS'13'
p11479
aa(lp11480
I593
aS'14'
p11481
aa(lp11482
I593
aS'15'
p11483
aa(lp11484
I593
aS'16'
p11485
aa(lp11486
I593
aS'17'
p11487
aa(lp11488
I593
aS'18'
p11489
aa(lp11490
I593
aS'19'
p11491
aa(lp11492
I593
aS'20'
p11493
aa(lp11494
I593
aS'21'
p11495
aa(lp11496
I593
aS'22'
p11497
aa(lp11498
I593
aS'23'
p11499
aa(lp11500
I594
aS'24'
p11501
aa(lp11502
I594
aS'25'
p11503
aa(lp11504
I594
aS'26'
p11505
aa(lp11506
I594
aS'27'
p11507
aa(lp11508
I594
aS'28'
p11509
aa(lp11510
I594
aS'29'
p11511
aa(lp11512
I594
aS'30'
p11513
aaa(lp11514
(lp11515
I594
aV\u0627\u0644\u0628\u0644\u062f
p11516
aa(lp11517
I594
aS'1'
aa(lp11518
I594
aS'2'
aa(lp11519
I594
aS'3'
aa(lp11520
I594
aS'4'
aa(lp11521
I594
aS'5'
aa(lp11522
I594
aS'6'
aa(lp11523
I594
aS'7'
aa(lp11524
I594
aS'8'
aa(lp11525
I594
aS'9'
aa(lp11526
I594
aS'10'
p11527
aa(lp11528
I594
aS'11'
p11529
aa(lp11530
I594
aS'12'
p11531
aa(lp11532
I594
aS'13'
p11533
aa(lp11534
I594
aS'14'
p11535
aa(lp11536
I594
aS'15'
p11537
aa(lp11538
I594
aS'16'
p11539
aa(lp11540
I594
aS'17'
p11541
aa(lp11542
I594
aS'18'
p11543
aa(lp11544
I594
aS'19'
p11545
aa(lp11546
I594
aS'20'
p11547
aaa(lp11548
(lp11549
I595
aV\u0627\u0644\u0634\u0645\u0633
p11550
aa(lp11551
I595
aS'1'
aa(lp11552
I595
aS'2'
aa(lp11553
I595
aS'3'
aa(lp11554
I595
aS'4'
aa(lp11555
I595
aS'5'
aa(lp11556
I595
aS'6'
aa(lp11557
I595
aS'7'
aa(lp11558
I595
aS'8'
aa(lp11559
I595
aS'9'
aa(lp11560
I595
aS'10'
p11561
aa(lp11562
I595
aS'11'
p11563
aa(lp11564
I595
aS'12'
p11565
aa(lp11566
I595
aS'13'
p11567
aa(lp11568
I595
aS'14'
p11569
aa(lp11570
I595
aS'15'
p11571
aaa(lp11572
(lp11573
I595
aV\u0627\u0644\u0644\u064a\u0644
p11574
aa(lp11575
I595
aS'1'
aa(lp11576
I595
aS'2'
aa(lp11577
I595
aS'3'
aa(lp11578
I595
aS'4'
aa(lp11579
I595
aS'5'
aa(lp11580
I595
aS'6'
aa(lp11581
I595
aS'7'
aa(lp11582
I595
aS'8'
aa(lp11583
I595
aS'9'
aa(lp11584
I595
aS'10'
p11585
aa(lp11586
I595
aS'11'
p11587
aa(lp11588
I595
aS'12'
p11589
aa(lp11590
I595
aS'13'
p11591
aa(lp11592
I595
aS'14'
p11593
aa(lp11594
I596
aS'15'
p11595
aa(lp11596
I596
aS'16'
p11597
aa(lp11598
I596
aS'17'
p11599
aa(lp11600
I596
aS'18'
p11601
aa(lp11602
I596
aS'19'
p11603
aa(lp11604
I596
aS'20'
p11605
aa(lp11606
I596
aS'21'
p11607
aaa(lp11608
(lp11609
I596
aV\u0627\u0644\u0636\u062d\u0649
p11610
aa(lp11611
I596
aS'1'
aa(lp11612
I596
aS'2'
aa(lp11613
I596
aS'3'
aa(lp11614
I596
aS'4'
aa(lp11615
I596
aS'5'
aa(lp11616
I596
aS'6'
aa(lp11617
I596
aS'7'
aa(lp11618
I596
aS'8'
aa(lp11619
I596
aS'9'
aa(lp11620
I596
aS'10'
p11621
aa(lp11622
I596
aS'11'
p11623
aaa(lp11624
(lp11625
I596
aV\u0627\u0644\u0634\u0631\u062d
p11626
aa(lp11627
I596
aS'1'
aa(lp11628
I596
aS'2'
aa(lp11629
I596
aS'3'
aa(lp11630
I596
aS'4'
aa(lp11631
I596
aS'5'
aa(lp11632
I596
aS'6'
aa(lp11633
I596
aS'7'
aa(lp11634
I596
aS'8'
aaa(lp11635
(lp11636
I597
aV\u0627\u0644\u062a\u064a\u0646
p11637
aa(lp11638
I597
aS'1'
aa(lp11639
I597
aS'2'
aa(lp11640
I597
aS'3'
aa(lp11641
I597
aS'4'
aa(lp11642
I597
aS'5'
aa(lp11643
I597
aS'6'
aa(lp11644
I597
aS'7'
aa(lp11645
I597
aS'8'
aaa(lp11646
(lp11647
I597
aV\u0627\u0644\u0639\u0644\u0642
p11648
aa(lp11649
I597
aS'1'
aa(lp11650
I597
aS'2'
aa(lp11651
I597
aS'3'
aa(lp11652
I597
aS'4'
aa(lp11653
I597
aS'5'
aa(lp11654
I597
aS'6'
aa(lp11655
I597
aS'7'
aa(lp11656
I597
aS'8'
aa(lp11657
I597
aS'9'
aa(lp11658
I597
aS'10'
p11659
aa(lp11660
I597
aS'11'
p11661
aa(lp11662
I597
aS'12'
p11663
aa(lp11664
I597
aS'13'
p11665
aa(lp11666
I597
aS'14'
p11667
aa(lp11668
I597
aS'15'
p11669
aa(lp11670
I597
aS'16'
p11671
aa(lp11672
I597
aS'17'
p11673
aa(lp11674
I597
aS'18'
p11675
aa(lp11676
I597
aS'19'
p11677
aaa(lp11678
(lp11679
I598
aV\u0627\u0644\u0642\u062f\u0631
p11680
aa(lp11681
I598
aS'1'
aa(lp11682
I598
aS'2'
aa(lp11683
I598
aS'3'
aa(lp11684
I598
aS'4'
aa(lp11685
I598
aS'5'
aaa(lp11686
(lp11687
I598
aV\u0627\u0644\u0628\u064a\u0646\u0629
p11688
aa(lp11689
I598
aS'1'
aa(lp11690
I598
aS'2'
aa(lp11691
I598
aS'3'
aa(lp11692
I598
aS'4'
aa(lp11693
I598
aS'5'
aa(lp11694
I598
aS'6'
aa(lp11695
I598
aS'7'
aa(lp11696
I599
aS'8'
aaa(lp11697
(lp11698
I599
aV\u0627\u0644\u0632\u0644\u0632\u0644\u0629
p11699
aa(lp11700
I599
aS'1'
aa(lp11701
I599
aS'2'
aa(lp11702
I599
aS'3'
aa(lp11703
I599
aS'4'
aa(lp11704
I599
aS'5'
aa(lp11705
I599
aS'6'
aa(lp11706
I599
aS'7'
aa(lp11707
I599
aS'8'
aaa(lp11708
(lp11709
I599
aV\u0627\u0644\u0639\u0627\u062f\u064a\u0627\u062a
p11710
aa(lp11711
I599
aS'1'
aa(lp11712
I599
aS'2'
aa(lp11713
I599
aS'3'
aa(lp11714
I599
aS'4'
aa(lp11715
I599
aS'5'
aa(lp11716
I599
aS'6'
aa(lp11717
I599
aS'7'
aa(lp11718
I599
aS'8'
aa(lp11719
I599
aS'9'
aa(lp11720
I600
aS'10'
p11721
aa(lp11722
I600
aS'11'
p11723
aaa(lp11724
(lp11725
I600
aV\u0627\u0644\u0642\u0627\u0631\u0639\u0629
p11726
aa(lp11727
I600
aS'1'
aa(lp11728
I600
aS'2'
aa(lp11729
I600
aS'3'
aa(lp11730
I600
aS'4'
aa(lp11731
I600
aS'5'
aa(lp11732
I600
aS'6'
aa(lp11733
I600
aS'7'
aa(lp11734
I600
aS'8'
aa(lp11735
I600
aS'9'
aa(lp11736
I600
aS'10'
p11737
aa(lp11738
I600
aS'11'
p11739
aaa(lp11740
(lp11741
I600
aV\u0627\u0644\u062a\u0643\u0627\u062b\u0631
p11742
aa(lp11743
I600
aS'1'
aa(lp11744
I600
aS'2'
aa(lp11745
I600
aS'3'
aa(lp11746
I600
aS'4'
aa(lp11747
I600
aS'5'
aa(lp11748
I600
aS'6'
aa(lp11749
I600
aS'7'
aa(lp11750
I600
aS'8'
aaa(lp11751
(lp11752
I601
aV\u0627\u0644\u0639\u0635\u0631
p11753
aa(lp11754
I601
aS'1'
aa(lp11755
I601
aS'2'
aa(lp11756
I601
aS'3'
aaa(lp11757
(lp11758
I601
aV\u0627\u0644\u0647\u0645\u0632\u0629
p11759
aa(lp11760
I601
aS'1'
aa(lp11761
I601
aS'2'
aa(lp11762
I601
aS'3'
aa(lp11763
I601
aS'4'
aa(lp11764
I601
aS'5'
aa(lp11765
I601
aS'6'
aa(lp11766
I601
aS'7'
aa(lp11767
I601
aS'8'
aa(lp11768
I601
aS'9'
aaa(lp11769
(lp11770
I601
aV\u0627\u0644\u0641\u064a\u0644
p11771
aa(lp11772
I601
aS'1'
aa(lp11773
I601
aS'2'
aa(lp11774
I601
aS'3'
aa(lp11775
I601
aS'4'
aa(lp11776
I601
aS'5'
aaa(lp11777
(lp11778
I602
aV\u0642\u0631\u064a\u0634
p11779
aa(lp11780
I602
aS'1'
aa(lp11781
I602
aS'2'
aa(lp11782
I602
aS'3'
aa(lp11783
I602
aS'4'
aaa(lp11784
(lp11785
I602
aV\u0627\u0644\u0645\u0627\u0639\u0648\u0646
p11786
aa(lp11787
I602
aS'1'
aa(lp11788
I602
aS'2'
aa(lp11789
I602
aS'3'
aa(lp11790
I602
aS'4'
aa(lp11791
I602
aS'5'
aa(lp11792
I602
aS'6'
aa(lp11793
I602
aS'7'
aaa(lp11794
(lp11795
I602
aV\u0627\u0644\u0643\u0648\u062b\u0631
p11796
aa(lp11797
I602
aS'1'
aa(lp11798
I602
aS'2'
aa(lp11799
I602
aS'3'
aaa(lp11800
(lp11801
I603
aV\u0627\u0644\u0643\u0627\u0641\u0631\u0648\u0646
p11802
aa(lp11803
I603
aS'1'
aa(lp11804
I603
aS'2'
aa(lp11805
I603
aS'3'
aa(lp11806
I603
aS'4'
aa(lp11807
I603
aS'5'
aa(lp11808
I603
aS'6'
aaa(lp11809
(lp11810
I603
aV\u0627\u0644\u0646\u0635\u0631
p11811
aa(lp11812
I603
aS'1'
aa(lp11813
I603
aS'2'
aa(lp11814
I603
aS'3'
aaa(lp11815
(lp11816
I603
aV\u0627\u0644\u0645\u0633\u062f
p11817
aa(lp11818
I603
aS'1'
aa(lp11819
I603
aS'2'
aa(lp11820
I603
aS'3'
aa(lp11821
I603
aS'4'
aa(lp11822
I603
aS'5'
aaa(lp11823
(lp11824
I604
aV\u0627\u0644\u0625\u062e\u0644\u0627\u0635
p11825
aa(lp11826
I604
aS'1'
aa(lp11827
I604
aS'2'
aa(lp11828
I604
aS'3'
aa(lp11829
I604
aS'4'
aaa(lp11830
(lp11831
I604
aV\u0627\u0644\u0641\u0644\u0642
p11832
aa(lp11833
I604
aS'1'
aa(lp11834
I604
aS'2'
aa(lp11835
I604
aS'3'
aa(lp11836
I604
aS'4'
aa(lp11837
I604
aS'5'
aaa(lp11838
(lp11839
I604
aV\u0627\u0644\u0646\u0627\u0633
p11840
aa(lp11841
I604
aS'1'
aa(lp11842
I604
aS'2'
aa(lp11843
I604
aS'3'
aa(lp11844
I604
aS'4'
aa(lp11845
I604
aS'5'
aa(lp11846
I604
aS'6'
aaa.